
transformer:     file format elf32-i386


Disassembly of section .init:

080483b8 <_init>:
 80483b8:	53                   	push   %ebx
 80483b9:	83 ec 08             	sub    $0x8,%esp
 80483bc:	e8 ef 00 00 00       	call   80484b0 <__x86.get_pc_thunk.bx>
 80483c1:	81 c3 3f 1c 00 00    	add    $0x1c3f,%ebx
 80483c7:	8b 83 fc ff ff ff    	mov    -0x4(%ebx),%eax
 80483cd:	85 c0                	test   %eax,%eax
 80483cf:	74 05                	je     80483d6 <_init+0x1e>
 80483d1:	e8 9a 00 00 00       	call   8048470 <.plt.got>
 80483d6:	83 c4 08             	add    $0x8,%esp
 80483d9:	5b                   	pop    %ebx
 80483da:	c3                   	ret    

Disassembly of section .plt:

080483e0 <.plt>:
 80483e0:	ff 35 04 a0 04 08    	pushl  0x804a004
 80483e6:	ff 25 08 a0 04 08    	jmp    *0x804a008
 80483ec:	00 00                	add    %al,(%eax)
	...

080483f0 <printf@plt>:
 80483f0:	ff 25 0c a0 04 08    	jmp    *0x804a00c
 80483f6:	68 00 00 00 00       	push   $0x0
 80483fb:	e9 e0 ff ff ff       	jmp    80483e0 <.plt>

08048400 <fflush@plt>:
 8048400:	ff 25 10 a0 04 08    	jmp    *0x804a010
 8048406:	68 08 00 00 00       	push   $0x8
 804840b:	e9 d0 ff ff ff       	jmp    80483e0 <.plt>

08048410 <puts@plt>:
 8048410:	ff 25 14 a0 04 08    	jmp    *0x804a014
 8048416:	68 10 00 00 00       	push   $0x10
 804841b:	e9 c0 ff ff ff       	jmp    80483e0 <.plt>

08048420 <system@plt>:
 8048420:	ff 25 18 a0 04 08    	jmp    *0x804a018
 8048426:	68 18 00 00 00       	push   $0x18
 804842b:	e9 b0 ff ff ff       	jmp    80483e0 <.plt>

08048430 <strlen@plt>:
 8048430:	ff 25 1c a0 04 08    	jmp    *0x804a01c
 8048436:	68 20 00 00 00       	push   $0x20
 804843b:	e9 a0 ff ff ff       	jmp    80483e0 <.plt>

08048440 <__libc_start_main@plt>:
 8048440:	ff 25 20 a0 04 08    	jmp    *0x804a020
 8048446:	68 28 00 00 00       	push   $0x28
 804844b:	e9 90 ff ff ff       	jmp    80483e0 <.plt>

08048450 <__isoc99_scanf@plt>:
 8048450:	ff 25 24 a0 04 08    	jmp    *0x804a024
 8048456:	68 30 00 00 00       	push   $0x30
 804845b:	e9 80 ff ff ff       	jmp    80483e0 <.plt>

08048460 <calloc@plt>:
 8048460:	ff 25 28 a0 04 08    	jmp    *0x804a028
 8048466:	68 38 00 00 00       	push   $0x38
 804846b:	e9 70 ff ff ff       	jmp    80483e0 <.plt>

Disassembly of section .plt.got:

08048470 <.plt.got>:
 8048470:	ff 25 fc 9f 04 08    	jmp    *0x8049ffc
 8048476:	66 90                	xchg   %ax,%ax

Disassembly of section .text:

08048480 <_start>:
 8048480:	31 ed                	xor    %ebp,%ebp
 8048482:	5e                   	pop    %esi
 8048483:	89 e1                	mov    %esp,%ecx
 8048485:	83 e4 f0             	and    $0xfffffff0,%esp
 8048488:	50                   	push   %eax
 8048489:	54                   	push   %esp
 804848a:	52                   	push   %edx
 804848b:	68 b0 88 04 08       	push   $0x80488b0
 8048490:	68 50 88 04 08       	push   $0x8048850
 8048495:	51                   	push   %ecx
 8048496:	56                   	push   %esi
 8048497:	68 de 86 04 08       	push   $0x80486de
 804849c:	e8 9f ff ff ff       	call   8048440 <__libc_start_main@plt>
 80484a1:	f4                   	hlt    
 80484a2:	66 90                	xchg   %ax,%ax
 80484a4:	66 90                	xchg   %ax,%ax
 80484a6:	66 90                	xchg   %ax,%ax
 80484a8:	66 90                	xchg   %ax,%ax
 80484aa:	66 90                	xchg   %ax,%ax
 80484ac:	66 90                	xchg   %ax,%ax
 80484ae:	66 90                	xchg   %ax,%ax

080484b0 <__x86.get_pc_thunk.bx>:
 80484b0:	8b 1c 24             	mov    (%esp),%ebx
 80484b3:	c3                   	ret    
 80484b4:	66 90                	xchg   %ax,%ax
 80484b6:	66 90                	xchg   %ax,%ax
 80484b8:	66 90                	xchg   %ax,%ax
 80484ba:	66 90                	xchg   %ax,%ax
 80484bc:	66 90                	xchg   %ax,%ax
 80484be:	66 90                	xchg   %ax,%ax

080484c0 <deregister_tm_clones>:
 80484c0:	b8 37 a0 04 08       	mov    $0x804a037,%eax
 80484c5:	2d 34 a0 04 08       	sub    $0x804a034,%eax
 80484ca:	83 f8 06             	cmp    $0x6,%eax
 80484cd:	76 1a                	jbe    80484e9 <deregister_tm_clones+0x29>
 80484cf:	b8 00 00 00 00       	mov    $0x0,%eax
 80484d4:	85 c0                	test   %eax,%eax
 80484d6:	74 11                	je     80484e9 <deregister_tm_clones+0x29>
 80484d8:	55                   	push   %ebp
 80484d9:	89 e5                	mov    %esp,%ebp
 80484db:	83 ec 14             	sub    $0x14,%esp
 80484de:	68 34 a0 04 08       	push   $0x804a034
 80484e3:	ff d0                	call   *%eax
 80484e5:	83 c4 10             	add    $0x10,%esp
 80484e8:	c9                   	leave  
 80484e9:	f3 c3                	repz ret 
 80484eb:	90                   	nop
 80484ec:	8d 74 26 00          	lea    0x0(%esi,%eiz,1),%esi

080484f0 <register_tm_clones>:
 80484f0:	b8 34 a0 04 08       	mov    $0x804a034,%eax
 80484f5:	2d 34 a0 04 08       	sub    $0x804a034,%eax
 80484fa:	c1 f8 02             	sar    $0x2,%eax
 80484fd:	89 c2                	mov    %eax,%edx
 80484ff:	c1 ea 1f             	shr    $0x1f,%edx
 8048502:	01 d0                	add    %edx,%eax
 8048504:	d1 f8                	sar    %eax
 8048506:	74 1b                	je     8048523 <register_tm_clones+0x33>
 8048508:	ba 00 00 00 00       	mov    $0x0,%edx
 804850d:	85 d2                	test   %edx,%edx
 804850f:	74 12                	je     8048523 <register_tm_clones+0x33>
 8048511:	55                   	push   %ebp
 8048512:	89 e5                	mov    %esp,%ebp
 8048514:	83 ec 10             	sub    $0x10,%esp
 8048517:	50                   	push   %eax
 8048518:	68 34 a0 04 08       	push   $0x804a034
 804851d:	ff d2                	call   *%edx
 804851f:	83 c4 10             	add    $0x10,%esp
 8048522:	c9                   	leave  
 8048523:	f3 c3                	repz ret 
 8048525:	8d 74 26 00          	lea    0x0(%esi,%eiz,1),%esi
 8048529:	8d bc 27 00 00 00 00 	lea    0x0(%edi,%eiz,1),%edi

08048530 <__do_global_dtors_aux>:
 8048530:	80 3d 38 a0 04 08 00 	cmpb   $0x0,0x804a038
 8048537:	75 13                	jne    804854c <__do_global_dtors_aux+0x1c>
 8048539:	55                   	push   %ebp
 804853a:	89 e5                	mov    %esp,%ebp
 804853c:	83 ec 08             	sub    $0x8,%esp
 804853f:	e8 7c ff ff ff       	call   80484c0 <deregister_tm_clones>
 8048544:	c6 05 38 a0 04 08 01 	movb   $0x1,0x804a038
 804854b:	c9                   	leave  
 804854c:	f3 c3                	repz ret 
 804854e:	66 90                	xchg   %ax,%ax

08048550 <frame_dummy>:
 8048550:	b8 10 9f 04 08       	mov    $0x8049f10,%eax
 8048555:	8b 10                	mov    (%eax),%edx
 8048557:	85 d2                	test   %edx,%edx
 8048559:	75 05                	jne    8048560 <frame_dummy+0x10>
 804855b:	eb 93                	jmp    80484f0 <register_tm_clones>
 804855d:	8d 76 00             	lea    0x0(%esi),%esi
 8048560:	ba 00 00 00 00       	mov    $0x0,%edx
 8048565:	85 d2                	test   %edx,%edx
 8048567:	74 f2                	je     804855b <frame_dummy+0xb>
 8048569:	55                   	push   %ebp
 804856a:	89 e5                	mov    %esp,%ebp
 804856c:	83 ec 14             	sub    $0x14,%esp
 804856f:	50                   	push   %eax
 8048570:	ff d2                	call   *%edx
 8048572:	83 c4 10             	add    $0x10,%esp
 8048575:	c9                   	leave  
 8048576:	e9 75 ff ff ff       	jmp    80484f0 <register_tm_clones>

0804857b <stealth>:
 804857b:	55                   	push   %ebp
 804857c:	89 e5                	mov    %esp,%ebp
 804857e:	68 d0 88 04 08       	push   $0x80488d0
 8048583:	e8 98 fe ff ff       	call   8048420 <system@plt>
 8048588:	83 c4 04             	add    $0x4,%esp
 804858b:	90                   	nop
 804858c:	c9                   	leave  
 804858d:	c3                   	ret    

0804858e <transcheck>:
 804858e:	55                   	push   %ebp
 804858f:	89 e5                	mov    %esp,%ebp
 8048591:	53                   	push   %ebx
 8048592:	83 ec 18             	sub    $0x18,%esp
 8048595:	ff 75 08             	pushl  0x8(%ebp)
 8048598:	e8 93 fe ff ff       	call   8048430 <strlen@plt>
 804859d:	83 c4 04             	add    $0x4,%esp
 80485a0:	89 c3                	mov    %eax,%ebx
 80485a2:	ff 75 0c             	pushl  0xc(%ebp)
 80485a5:	e8 86 fe ff ff       	call   8048430 <strlen@plt>
 80485aa:	83 c4 04             	add    $0x4,%esp
 80485ad:	39 c3                	cmp    %eax,%ebx
 80485af:	74 0a                	je     80485bb <transcheck+0x2d>
 80485b1:	b8 00 00 00 00       	mov    $0x0,%eax
 80485b6:	e9 1e 01 00 00       	jmp    80486d9 <transcheck+0x14b>
 80485bb:	6a 04                	push   $0x4
 80485bd:	6a 1a                	push   $0x1a
 80485bf:	e8 9c fe ff ff       	call   8048460 <calloc@plt>
 80485c4:	83 c4 08             	add    $0x8,%esp
 80485c7:	89 45 e8             	mov    %eax,-0x18(%ebp)
 80485ca:	6a 04                	push   $0x4
 80485cc:	6a 1a                	push   $0x1a
 80485ce:	e8 8d fe ff ff       	call   8048460 <calloc@plt>
 80485d3:	83 c4 08             	add    $0x8,%esp
 80485d6:	89 45 e4             	mov    %eax,-0x1c(%ebp)
 80485d9:	8b 45 08             	mov    0x8(%ebp),%eax
 80485dc:	89 45 f8             	mov    %eax,-0x8(%ebp)
 80485df:	8b 45 0c             	mov    0xc(%ebp),%eax
 80485e2:	89 45 f4             	mov    %eax,-0xc(%ebp)
 80485e5:	e9 9c 00 00 00       	jmp    8048686 <transcheck+0xf8>
 80485ea:	8b 45 f8             	mov    -0x8(%ebp),%eax
 80485ed:	0f b6 10             	movzbl (%eax),%edx
 80485f0:	66 0f be ca          	movsbw %dl,%cx
 80485f4:	89 c8                	mov    %ecx,%eax
 80485f6:	c1 e0 02             	shl    $0x2,%eax
 80485f9:	01 c8                	add    %ecx,%eax
 80485fb:	c1 e0 04             	shl    $0x4,%eax
 80485fe:	29 c8                	sub    %ecx,%eax
 8048600:	66 c1 e8 08          	shr    $0x8,%ax
 8048604:	89 c1                	mov    %eax,%ecx
 8048606:	c0 f9 03             	sar    $0x3,%cl
 8048609:	89 d0                	mov    %edx,%eax
 804860b:	c0 f8 07             	sar    $0x7,%al
 804860e:	29 c1                	sub    %eax,%ecx
 8048610:	89 c8                	mov    %ecx,%eax
 8048612:	b9 1a 00 00 00       	mov    $0x1a,%ecx
 8048617:	0f af c1             	imul   %ecx,%eax
 804861a:	29 c2                	sub    %eax,%edx
 804861c:	89 d0                	mov    %edx,%eax
 804861e:	0f be c0             	movsbl %al,%eax
 8048621:	8d 14 85 00 00 00 00 	lea    0x0(,%eax,4),%edx
 8048628:	8b 45 e8             	mov    -0x18(%ebp),%eax
 804862b:	01 d0                	add    %edx,%eax
 804862d:	8b 10                	mov    (%eax),%edx
 804862f:	83 c2 01             	add    $0x1,%edx
 8048632:	89 10                	mov    %edx,(%eax)
 8048634:	8b 45 f4             	mov    -0xc(%ebp),%eax
 8048637:	0f b6 10             	movzbl (%eax),%edx
 804863a:	66 0f be ca          	movsbw %dl,%cx
 804863e:	89 c8                	mov    %ecx,%eax
 8048640:	c1 e0 02             	shl    $0x2,%eax
 8048643:	01 c8                	add    %ecx,%eax
 8048645:	c1 e0 04             	shl    $0x4,%eax
 8048648:	29 c8                	sub    %ecx,%eax
 804864a:	66 c1 e8 08          	shr    $0x8,%ax
 804864e:	89 c1                	mov    %eax,%ecx
 8048650:	c0 f9 03             	sar    $0x3,%cl
 8048653:	89 d0                	mov    %edx,%eax
 8048655:	c0 f8 07             	sar    $0x7,%al
 8048658:	29 c1                	sub    %eax,%ecx
 804865a:	89 c8                	mov    %ecx,%eax
 804865c:	b9 1a 00 00 00       	mov    $0x1a,%ecx
 8048661:	0f af c1             	imul   %ecx,%eax
 8048664:	29 c2                	sub    %eax,%edx
 8048666:	89 d0                	mov    %edx,%eax
 8048668:	0f be c0             	movsbl %al,%eax
 804866b:	8d 14 85 00 00 00 00 	lea    0x0(,%eax,4),%edx
 8048672:	8b 45 e4             	mov    -0x1c(%ebp),%eax
 8048675:	01 d0                	add    %edx,%eax
 8048677:	8b 10                	mov    (%eax),%edx
 8048679:	83 c2 01             	add    $0x1,%edx
 804867c:	89 10                	mov    %edx,(%eax)
 804867e:	83 45 f8 01          	addl   $0x1,-0x8(%ebp)
 8048682:	83 45 f4 01          	addl   $0x1,-0xc(%ebp)
 8048686:	8b 45 f8             	mov    -0x8(%ebp),%eax
 8048689:	0f b6 00             	movzbl (%eax),%eax
 804868c:	84 c0                	test   %al,%al
 804868e:	0f 85 56 ff ff ff    	jne    80485ea <transcheck+0x5c>
 8048694:	c6 45 f3 01          	movb   $0x1,-0xd(%ebp)
 8048698:	c7 45 ec 00 00 00 00 	movl   $0x0,-0x14(%ebp)
 804869f:	eb 2e                	jmp    80486cf <transcheck+0x141>
 80486a1:	8b 45 ec             	mov    -0x14(%ebp),%eax
 80486a4:	8d 14 85 00 00 00 00 	lea    0x0(,%eax,4),%edx
 80486ab:	8b 45 e8             	mov    -0x18(%ebp),%eax
 80486ae:	01 d0                	add    %edx,%eax
 80486b0:	8b 10                	mov    (%eax),%edx
 80486b2:	8b 45 ec             	mov    -0x14(%ebp),%eax
 80486b5:	8d 0c 85 00 00 00 00 	lea    0x0(,%eax,4),%ecx
 80486bc:	8b 45 e4             	mov    -0x1c(%ebp),%eax
 80486bf:	01 c8                	add    %ecx,%eax
 80486c1:	8b 00                	mov    (%eax),%eax
 80486c3:	39 c2                	cmp    %eax,%edx
 80486c5:	74 04                	je     80486cb <transcheck+0x13d>
 80486c7:	c6 45 f3 00          	movb   $0x0,-0xd(%ebp)
 80486cb:	83 45 ec 01          	addl   $0x1,-0x14(%ebp)
 80486cf:	83 7d ec 19          	cmpl   $0x19,-0x14(%ebp)
 80486d3:	7e cc                	jle    80486a1 <transcheck+0x113>
 80486d5:	0f b6 45 f3          	movzbl -0xd(%ebp),%eax
 80486d9:	8b 5d fc             	mov    -0x4(%ebp),%ebx
 80486dc:	c9                   	leave  
 80486dd:	c3                   	ret    

080486de <main>:
 80486de:	55                   	push   %ebp
 80486df:	89 e5                	mov    %esp,%ebp
 80486e1:	81 ec 80 01 00 00    	sub    $0x180,%esp
 80486e7:	68 d8 88 04 08       	push   $0x80488d8
 80486ec:	e8 1f fd ff ff       	call   8048410 <puts@plt>
 80486f1:	83 c4 04             	add    $0x4,%esp
 80486f4:	68 1c 89 04 08       	push   $0x804891c
 80486f9:	e8 12 fd ff ff       	call   8048410 <puts@plt>
 80486fe:	83 c4 04             	add    $0x4,%esp
 8048701:	68 60 89 04 08       	push   $0x8048960
 8048706:	e8 05 fd ff ff       	call   8048410 <puts@plt>
 804870b:	83 c4 04             	add    $0x4,%esp
 804870e:	68 a0 89 04 08       	push   $0x80489a0
 8048713:	e8 f8 fc ff ff       	call   8048410 <puts@plt>
 8048718:	83 c4 04             	add    $0x4,%esp
 804871b:	68 e4 89 04 08       	push   $0x80489e4
 8048720:	e8 eb fc ff ff       	call   8048410 <puts@plt>
 8048725:	83 c4 04             	add    $0x4,%esp
 8048728:	68 24 8a 04 08       	push   $0x8048a24
 804872d:	e8 de fc ff ff       	call   8048410 <puts@plt>
 8048732:	83 c4 04             	add    $0x4,%esp
 8048735:	68 68 8a 04 08       	push   $0x8048a68
 804873a:	e8 d1 fc ff ff       	call   8048410 <puts@plt>
 804873f:	83 c4 04             	add    $0x4,%esp
 8048742:	68 ac 8a 04 08       	push   $0x8048aac
 8048747:	e8 c4 fc ff ff       	call   8048410 <puts@plt>
 804874c:	83 c4 04             	add    $0x4,%esp
 804874f:	68 24 8a 04 08       	push   $0x8048a24
 8048754:	e8 b7 fc ff ff       	call   8048410 <puts@plt>
 8048759:	83 c4 04             	add    $0x4,%esp
 804875c:	a1 34 a0 04 08       	mov    0x804a034,%eax
 8048761:	50                   	push   %eax
 8048762:	e8 99 fc ff ff       	call   8048400 <fflush@plt>
 8048767:	83 c4 04             	add    $0x4,%esp
 804876a:	68 f0 8a 04 08       	push   $0x8048af0
 804876f:	e8 7c fc ff ff       	call   80483f0 <printf@plt>
 8048774:	83 c4 04             	add    $0x4,%esp
 8048777:	a1 34 a0 04 08       	mov    0x804a034,%eax
 804877c:	50                   	push   %eax
 804877d:	e8 7e fc ff ff       	call   8048400 <fflush@plt>
 8048782:	83 c4 04             	add    $0x4,%esp
 8048785:	8d 85 00 ff ff ff    	lea    -0x100(%ebp),%eax
 804878b:	50                   	push   %eax
 804878c:	68 fa 8a 04 08       	push   $0x8048afa
 8048791:	e8 ba fc ff ff       	call   8048450 <__isoc99_scanf@plt>
 8048796:	83 c4 08             	add    $0x8,%esp
 8048799:	68 fd 8a 04 08       	push   $0x8048afd
 804879e:	e8 4d fc ff ff       	call   80483f0 <printf@plt>
 80487a3:	83 c4 04             	add    $0x4,%esp
 80487a6:	a1 34 a0 04 08       	mov    0x804a034,%eax
 80487ab:	50                   	push   %eax
 80487ac:	e8 4f fc ff ff       	call   8048400 <fflush@plt>
 80487b1:	83 c4 04             	add    $0x4,%esp
 80487b4:	8d 85 80 fe ff ff    	lea    -0x180(%ebp),%eax
 80487ba:	50                   	push   %eax
 80487bb:	68 fa 8a 04 08       	push   $0x8048afa
 80487c0:	e8 8b fc ff ff       	call   8048450 <__isoc99_scanf@plt>
 80487c5:	83 c4 08             	add    $0x8,%esp
 80487c8:	a1 34 a0 04 08       	mov    0x804a034,%eax
 80487cd:	50                   	push   %eax
 80487ce:	e8 2d fc ff ff       	call   8048400 <fflush@plt>
 80487d3:	83 c4 04             	add    $0x4,%esp
 80487d6:	8d 85 80 fe ff ff    	lea    -0x180(%ebp),%eax
 80487dc:	50                   	push   %eax
 80487dd:	8d 85 00 ff ff ff    	lea    -0x100(%ebp),%eax
 80487e3:	50                   	push   %eax
 80487e4:	e8 a5 fd ff ff       	call   804858e <transcheck>
 80487e9:	83 c4 08             	add    $0x8,%esp
 80487ec:	84 c0                	test   %al,%al
 80487ee:	74 2b                	je     804881b <main+0x13d>
 80487f0:	8d 85 80 fe ff ff    	lea    -0x180(%ebp),%eax
 80487f6:	50                   	push   %eax
 80487f7:	8d 85 00 ff ff ff    	lea    -0x100(%ebp),%eax
 80487fd:	50                   	push   %eax
 80487fe:	68 07 8b 04 08       	push   $0x8048b07
 8048803:	e8 e8 fb ff ff       	call   80483f0 <printf@plt>
 8048808:	83 c4 0c             	add    $0xc,%esp
 804880b:	a1 34 a0 04 08       	mov    0x804a034,%eax
 8048810:	50                   	push   %eax
 8048811:	e8 ea fb ff ff       	call   8048400 <fflush@plt>
 8048816:	83 c4 04             	add    $0x4,%esp
 8048819:	eb 29                	jmp    8048844 <main+0x166>
 804881b:	8d 85 80 fe ff ff    	lea    -0x180(%ebp),%eax
 8048821:	50                   	push   %eax
 8048822:	8d 85 00 ff ff ff    	lea    -0x100(%ebp),%eax
 8048828:	50                   	push   %eax
 8048829:	68 1f 8b 04 08       	push   $0x8048b1f
 804882e:	e8 bd fb ff ff       	call   80483f0 <printf@plt>
 8048833:	83 c4 0c             	add    $0xc,%esp
 8048836:	a1 34 a0 04 08       	mov    0x804a034,%eax
 804883b:	50                   	push   %eax
 804883c:	e8 bf fb ff ff       	call   8048400 <fflush@plt>
 8048841:	83 c4 04             	add    $0x4,%esp
 8048844:	b8 00 00 00 00       	mov    $0x0,%eax
 8048849:	c9                   	leave  
 804884a:	c3                   	ret    
 804884b:	66 90                	xchg   %ax,%ax
 804884d:	66 90                	xchg   %ax,%ax
 804884f:	90                   	nop

08048850 <__libc_csu_init>:
 8048850:	55                   	push   %ebp
 8048851:	57                   	push   %edi
 8048852:	56                   	push   %esi
 8048853:	53                   	push   %ebx
 8048854:	e8 57 fc ff ff       	call   80484b0 <__x86.get_pc_thunk.bx>
 8048859:	81 c3 a7 17 00 00    	add    $0x17a7,%ebx
 804885f:	83 ec 0c             	sub    $0xc,%esp
 8048862:	8b 6c 24 20          	mov    0x20(%esp),%ebp
 8048866:	8d b3 0c ff ff ff    	lea    -0xf4(%ebx),%esi
 804886c:	e8 47 fb ff ff       	call   80483b8 <_init>
 8048871:	8d 83 08 ff ff ff    	lea    -0xf8(%ebx),%eax
 8048877:	29 c6                	sub    %eax,%esi
 8048879:	c1 fe 02             	sar    $0x2,%esi
 804887c:	85 f6                	test   %esi,%esi
 804887e:	74 25                	je     80488a5 <__libc_csu_init+0x55>
 8048880:	31 ff                	xor    %edi,%edi
 8048882:	8d b6 00 00 00 00    	lea    0x0(%esi),%esi
 8048888:	83 ec 04             	sub    $0x4,%esp
 804888b:	ff 74 24 2c          	pushl  0x2c(%esp)
 804888f:	ff 74 24 2c          	pushl  0x2c(%esp)
 8048893:	55                   	push   %ebp
 8048894:	ff 94 bb 08 ff ff ff 	call   *-0xf8(%ebx,%edi,4)
 804889b:	83 c7 01             	add    $0x1,%edi
 804889e:	83 c4 10             	add    $0x10,%esp
 80488a1:	39 f7                	cmp    %esi,%edi
 80488a3:	75 e3                	jne    8048888 <__libc_csu_init+0x38>
 80488a5:	83 c4 0c             	add    $0xc,%esp
 80488a8:	5b                   	pop    %ebx
 80488a9:	5e                   	pop    %esi
 80488aa:	5f                   	pop    %edi
 80488ab:	5d                   	pop    %ebp
 80488ac:	c3                   	ret    
 80488ad:	8d 76 00             	lea    0x0(%esi),%esi

080488b0 <__libc_csu_fini>:
 80488b0:	f3 c3                	repz ret 

Disassembly of section .fini:

080488b4 <_fini>:
 80488b4:	53                   	push   %ebx
 80488b5:	83 ec 08             	sub    $0x8,%esp
 80488b8:	e8 f3 fb ff ff       	call   80484b0 <__x86.get_pc_thunk.bx>
 80488bd:	81 c3 43 17 00 00    	add    $0x1743,%ebx
 80488c3:	83 c4 08             	add    $0x8,%esp
 80488c6:	5b                   	pop    %ebx
 80488c7:	c3                   	ret    
