
plebpwn:     file format elf32-i386


Disassembly of section .init:

0804839c <_init>:
 804839c:	53                   	push   %ebx
 804839d:	83 ec 08             	sub    $0x8,%esp
 80483a0:	e8 db 00 00 00       	call   8048480 <__x86.get_pc_thunk.bx>
 80483a5:	81 c3 5b 1c 00 00    	add    $0x1c5b,%ebx
 80483ab:	8b 83 fc ff ff ff    	mov    -0x4(%ebx),%eax
 80483b1:	85 c0                	test   %eax,%eax
 80483b3:	74 05                	je     80483ba <_init+0x1e>
 80483b5:	e8 86 00 00 00       	call   8048440 <.plt.got>
 80483ba:	83 c4 08             	add    $0x8,%esp
 80483bd:	5b                   	pop    %ebx
 80483be:	c3                   	ret    

Disassembly of section .plt:

080483c0 <.plt>:
 80483c0:	ff 35 04 a0 04 08    	pushl  0x804a004
 80483c6:	ff 25 08 a0 04 08    	jmp    *0x804a008
 80483cc:	00 00                	add    %al,(%eax)
	...

080483d0 <strcmp@plt>:
 80483d0:	ff 25 0c a0 04 08    	jmp    *0x804a00c
 80483d6:	68 00 00 00 00       	push   $0x0
 80483db:	e9 e0 ff ff ff       	jmp    80483c0 <.plt>

080483e0 <read@plt>:
 80483e0:	ff 25 10 a0 04 08    	jmp    *0x804a010
 80483e6:	68 08 00 00 00       	push   $0x8
 80483eb:	e9 d0 ff ff ff       	jmp    80483c0 <.plt>

080483f0 <printf@plt>:
 80483f0:	ff 25 14 a0 04 08    	jmp    *0x804a014
 80483f6:	68 10 00 00 00       	push   $0x10
 80483fb:	e9 c0 ff ff ff       	jmp    80483c0 <.plt>

08048400 <puts@plt>:
 8048400:	ff 25 18 a0 04 08    	jmp    *0x804a018
 8048406:	68 18 00 00 00       	push   $0x18
 804840b:	e9 b0 ff ff ff       	jmp    80483c0 <.plt>

08048410 <system@plt>:
 8048410:	ff 25 1c a0 04 08    	jmp    *0x804a01c
 8048416:	68 20 00 00 00       	push   $0x20
 804841b:	e9 a0 ff ff ff       	jmp    80483c0 <.plt>

08048420 <__libc_start_main@plt>:
 8048420:	ff 25 20 a0 04 08    	jmp    *0x804a020
 8048426:	68 28 00 00 00       	push   $0x28
 804842b:	e9 90 ff ff ff       	jmp    80483c0 <.plt>

08048430 <setvbuf@plt>:
 8048430:	ff 25 24 a0 04 08    	jmp    *0x804a024
 8048436:	68 30 00 00 00       	push   $0x30
 804843b:	e9 80 ff ff ff       	jmp    80483c0 <.plt>

Disassembly of section .plt.got:

08048440 <.plt.got>:
 8048440:	ff 25 fc 9f 04 08    	jmp    *0x8049ffc
 8048446:	66 90                	xchg   %ax,%ax

Disassembly of section .text:

08048450 <_start>:
 8048450:	31 ed                	xor    %ebp,%ebp
 8048452:	5e                   	pop    %esi
 8048453:	89 e1                	mov    %esp,%ecx
 8048455:	83 e4 f0             	and    $0xfffffff0,%esp
 8048458:	50                   	push   %eax
 8048459:	54                   	push   %esp
 804845a:	52                   	push   %edx
 804845b:	68 b0 86 04 08       	push   $0x80486b0
 8048460:	68 50 86 04 08       	push   $0x8048650
 8048465:	51                   	push   %ecx
 8048466:	56                   	push   %esi
 8048467:	68 d9 85 04 08       	push   $0x80485d9
 804846c:	e8 af ff ff ff       	call   8048420 <__libc_start_main@plt>
 8048471:	f4                   	hlt    
 8048472:	66 90                	xchg   %ax,%ax
 8048474:	66 90                	xchg   %ax,%ax
 8048476:	66 90                	xchg   %ax,%ax
 8048478:	66 90                	xchg   %ax,%ax
 804847a:	66 90                	xchg   %ax,%ax
 804847c:	66 90                	xchg   %ax,%ax
 804847e:	66 90                	xchg   %ax,%ax

08048480 <__x86.get_pc_thunk.bx>:
 8048480:	8b 1c 24             	mov    (%esp),%ebx
 8048483:	c3                   	ret    
 8048484:	66 90                	xchg   %ax,%ax
 8048486:	66 90                	xchg   %ax,%ax
 8048488:	66 90                	xchg   %ax,%ax
 804848a:	66 90                	xchg   %ax,%ax
 804848c:	66 90                	xchg   %ax,%ax
 804848e:	66 90                	xchg   %ax,%ax

08048490 <deregister_tm_clones>:
 8048490:	b8 33 a0 04 08       	mov    $0x804a033,%eax
 8048495:	2d 30 a0 04 08       	sub    $0x804a030,%eax
 804849a:	83 f8 06             	cmp    $0x6,%eax
 804849d:	76 1a                	jbe    80484b9 <deregister_tm_clones+0x29>
 804849f:	b8 00 00 00 00       	mov    $0x0,%eax
 80484a4:	85 c0                	test   %eax,%eax
 80484a6:	74 11                	je     80484b9 <deregister_tm_clones+0x29>
 80484a8:	55                   	push   %ebp
 80484a9:	89 e5                	mov    %esp,%ebp
 80484ab:	83 ec 14             	sub    $0x14,%esp
 80484ae:	68 30 a0 04 08       	push   $0x804a030
 80484b3:	ff d0                	call   *%eax
 80484b5:	83 c4 10             	add    $0x10,%esp
 80484b8:	c9                   	leave  
 80484b9:	f3 c3                	repz ret 
 80484bb:	90                   	nop
 80484bc:	8d 74 26 00          	lea    0x0(%esi,%eiz,1),%esi

080484c0 <register_tm_clones>:
 80484c0:	b8 30 a0 04 08       	mov    $0x804a030,%eax
 80484c5:	2d 30 a0 04 08       	sub    $0x804a030,%eax
 80484ca:	c1 f8 02             	sar    $0x2,%eax
 80484cd:	89 c2                	mov    %eax,%edx
 80484cf:	c1 ea 1f             	shr    $0x1f,%edx
 80484d2:	01 d0                	add    %edx,%eax
 80484d4:	d1 f8                	sar    %eax
 80484d6:	74 1b                	je     80484f3 <register_tm_clones+0x33>
 80484d8:	ba 00 00 00 00       	mov    $0x0,%edx
 80484dd:	85 d2                	test   %edx,%edx
 80484df:	74 12                	je     80484f3 <register_tm_clones+0x33>
 80484e1:	55                   	push   %ebp
 80484e2:	89 e5                	mov    %esp,%ebp
 80484e4:	83 ec 10             	sub    $0x10,%esp
 80484e7:	50                   	push   %eax
 80484e8:	68 30 a0 04 08       	push   $0x804a030
 80484ed:	ff d2                	call   *%edx
 80484ef:	83 c4 10             	add    $0x10,%esp
 80484f2:	c9                   	leave  
 80484f3:	f3 c3                	repz ret 
 80484f5:	8d 74 26 00          	lea    0x0(%esi,%eiz,1),%esi
 80484f9:	8d bc 27 00 00 00 00 	lea    0x0(%edi,%eiz,1),%edi

08048500 <__do_global_dtors_aux>:
 8048500:	80 3d 48 a0 04 08 00 	cmpb   $0x0,0x804a048
 8048507:	75 13                	jne    804851c <__do_global_dtors_aux+0x1c>
 8048509:	55                   	push   %ebp
 804850a:	89 e5                	mov    %esp,%ebp
 804850c:	83 ec 08             	sub    $0x8,%esp
 804850f:	e8 7c ff ff ff       	call   8048490 <deregister_tm_clones>
 8048514:	c6 05 48 a0 04 08 01 	movb   $0x1,0x804a048
 804851b:	c9                   	leave  
 804851c:	f3 c3                	repz ret 
 804851e:	66 90                	xchg   %ax,%ax

08048520 <frame_dummy>:
 8048520:	b8 10 9f 04 08       	mov    $0x8049f10,%eax
 8048525:	8b 10                	mov    (%eax),%edx
 8048527:	85 d2                	test   %edx,%edx
 8048529:	75 05                	jne    8048530 <frame_dummy+0x10>
 804852b:	eb 93                	jmp    80484c0 <register_tm_clones>
 804852d:	8d 76 00             	lea    0x0(%esi),%esi
 8048530:	ba 00 00 00 00       	mov    $0x0,%edx
 8048535:	85 d2                	test   %edx,%edx
 8048537:	74 f2                	je     804852b <frame_dummy+0xb>
 8048539:	55                   	push   %ebp
 804853a:	89 e5                	mov    %esp,%ebp
 804853c:	83 ec 14             	sub    $0x14,%esp
 804853f:	50                   	push   %eax
 8048540:	ff d2                	call   *%edx
 8048542:	83 c4 10             	add    $0x10,%esp
 8048545:	c9                   	leave  
 8048546:	e9 75 ff ff ff       	jmp    80484c0 <register_tm_clones>

0804854b <print_me>:
 804854b:	55                   	push   %ebp
 804854c:	89 e5                	mov    %esp,%ebp
 804854e:	83 ec 08             	sub    $0x8,%esp
 8048551:	83 ec 0c             	sub    $0xc,%esp
 8048554:	68 d0 86 04 08       	push   $0x80486d0
 8048559:	e8 b2 fe ff ff       	call   8048410 <system@plt>
 804855e:	83 c4 10             	add    $0x10,%esp
 8048561:	90                   	nop
 8048562:	c9                   	leave  
 8048563:	c3                   	ret    

08048564 <check_password>:
 8048564:	55                   	push   %ebp
 8048565:	89 e5                	mov    %esp,%ebp
 8048567:	57                   	push   %edi
 8048568:	83 ec 54             	sub    $0x54,%esp
 804856b:	c7 45 f4 df 86 04 08 	movl   $0x80486df,-0xc(%ebp)
 8048572:	8d 55 b4             	lea    -0x4c(%ebp),%edx
 8048575:	b8 00 00 00 00       	mov    $0x0,%eax
 804857a:	b9 10 00 00 00       	mov    $0x10,%ecx
 804857f:	89 d7                	mov    %edx,%edi
 8048581:	f3 ab                	rep stos %eax,%es:(%edi)
 8048583:	83 ec 0c             	sub    $0xc,%esp
 8048586:	68 f5 86 04 08       	push   $0x80486f5
 804858b:	e8 60 fe ff ff       	call   80483f0 <printf@plt>
 8048590:	83 c4 10             	add    $0x10,%esp
 8048593:	83 ec 04             	sub    $0x4,%esp
 8048596:	68 80 00 00 00       	push   $0x80
 804859b:	8d 45 b4             	lea    -0x4c(%ebp),%eax
 804859e:	50                   	push   %eax
 804859f:	6a 00                	push   $0x0
 80485a1:	e8 3a fe ff ff       	call   80483e0 <read@plt>
 80485a6:	83 c4 10             	add    $0x10,%esp
 80485a9:	8d 45 b4             	lea    -0x4c(%ebp),%eax
 80485ac:	0f b6 00             	movzbl (%eax),%eax
 80485af:	84 c0                	test   %al,%al
 80485b1:	74 1c                	je     80485cf <check_password+0x6b>
 80485b3:	83 ec 08             	sub    $0x8,%esp
 80485b6:	8d 45 b4             	lea    -0x4c(%ebp),%eax
 80485b9:	50                   	push   %eax
 80485ba:	ff 75 f4             	pushl  -0xc(%ebp)
 80485bd:	e8 0e fe ff ff       	call   80483d0 <strcmp@plt>
 80485c2:	83 c4 10             	add    $0x10,%esp
 80485c5:	85 c0                	test   %eax,%eax
 80485c7:	0f 94 c0             	sete   %al
 80485ca:	0f b6 c0             	movzbl %al,%eax
 80485cd:	eb 05                	jmp    80485d4 <check_password+0x70>
 80485cf:	b8 00 00 00 00       	mov    $0x0,%eax
 80485d4:	8b 7d fc             	mov    -0x4(%ebp),%edi
 80485d7:	c9                   	leave  
 80485d8:	c3                   	ret    

080485d9 <main>:
 80485d9:	8d 4c 24 04          	lea    0x4(%esp),%ecx
 80485dd:	83 e4 f0             	and    $0xfffffff0,%esp
 80485e0:	ff 71 fc             	pushl  -0x4(%ecx)
 80485e3:	55                   	push   %ebp
 80485e4:	89 e5                	mov    %esp,%ebp
 80485e6:	51                   	push   %ecx
 80485e7:	83 ec 04             	sub    $0x4,%esp
 80485ea:	a1 40 a0 04 08       	mov    0x804a040,%eax
 80485ef:	6a 00                	push   $0x0
 80485f1:	6a 02                	push   $0x2
 80485f3:	6a 00                	push   $0x0
 80485f5:	50                   	push   %eax
 80485f6:	e8 35 fe ff ff       	call   8048430 <setvbuf@plt>
 80485fb:	83 c4 10             	add    $0x10,%esp
 80485fe:	a1 44 a0 04 08       	mov    0x804a044,%eax
 8048603:	6a 00                	push   $0x0
 8048605:	6a 02                	push   $0x2
 8048607:	6a 00                	push   $0x0
 8048609:	50                   	push   %eax
 804860a:	e8 21 fe ff ff       	call   8048430 <setvbuf@plt>
 804860f:	83 c4 10             	add    $0x10,%esp
 8048612:	e8 4d ff ff ff       	call   8048564 <check_password>
 8048617:	85 c0                	test   %eax,%eax
 8048619:	74 12                	je     804862d <main+0x54>
 804861b:	83 ec 0c             	sub    $0xc,%esp
 804861e:	68 11 87 04 08       	push   $0x8048711
 8048623:	e8 d8 fd ff ff       	call   8048400 <puts@plt>
 8048628:	83 c4 10             	add    $0x10,%esp
 804862b:	eb 10                	jmp    804863d <main+0x64>
 804862d:	83 ec 0c             	sub    $0xc,%esp
 8048630:	68 1a 87 04 08       	push   $0x804871a
 8048635:	e8 c6 fd ff ff       	call   8048400 <puts@plt>
 804863a:	83 c4 10             	add    $0x10,%esp
 804863d:	b8 00 00 00 00       	mov    $0x0,%eax
 8048642:	8b 4d fc             	mov    -0x4(%ebp),%ecx
 8048645:	c9                   	leave  
 8048646:	8d 61 fc             	lea    -0x4(%ecx),%esp
 8048649:	c3                   	ret    
 804864a:	66 90                	xchg   %ax,%ax
 804864c:	66 90                	xchg   %ax,%ax
 804864e:	66 90                	xchg   %ax,%ax

08048650 <__libc_csu_init>:
 8048650:	55                   	push   %ebp
 8048651:	57                   	push   %edi
 8048652:	56                   	push   %esi
 8048653:	53                   	push   %ebx
 8048654:	e8 27 fe ff ff       	call   8048480 <__x86.get_pc_thunk.bx>
 8048659:	81 c3 a7 19 00 00    	add    $0x19a7,%ebx
 804865f:	83 ec 0c             	sub    $0xc,%esp
 8048662:	8b 6c 24 20          	mov    0x20(%esp),%ebp
 8048666:	8d b3 0c ff ff ff    	lea    -0xf4(%ebx),%esi
 804866c:	e8 2b fd ff ff       	call   804839c <_init>
 8048671:	8d 83 08 ff ff ff    	lea    -0xf8(%ebx),%eax
 8048677:	29 c6                	sub    %eax,%esi
 8048679:	c1 fe 02             	sar    $0x2,%esi
 804867c:	85 f6                	test   %esi,%esi
 804867e:	74 25                	je     80486a5 <__libc_csu_init+0x55>
 8048680:	31 ff                	xor    %edi,%edi
 8048682:	8d b6 00 00 00 00    	lea    0x0(%esi),%esi
 8048688:	83 ec 04             	sub    $0x4,%esp
 804868b:	ff 74 24 2c          	pushl  0x2c(%esp)
 804868f:	ff 74 24 2c          	pushl  0x2c(%esp)
 8048693:	55                   	push   %ebp
 8048694:	ff 94 bb 08 ff ff ff 	call   *-0xf8(%ebx,%edi,4)
 804869b:	83 c7 01             	add    $0x1,%edi
 804869e:	83 c4 10             	add    $0x10,%esp
 80486a1:	39 f7                	cmp    %esi,%edi
 80486a3:	75 e3                	jne    8048688 <__libc_csu_init+0x38>
 80486a5:	83 c4 0c             	add    $0xc,%esp
 80486a8:	5b                   	pop    %ebx
 80486a9:	5e                   	pop    %esi
 80486aa:	5f                   	pop    %edi
 80486ab:	5d                   	pop    %ebp
 80486ac:	c3                   	ret    
 80486ad:	8d 76 00             	lea    0x0(%esi),%esi

080486b0 <__libc_csu_fini>:
 80486b0:	f3 c3                	repz ret 

Disassembly of section .fini:

080486b4 <_fini>:
 80486b4:	53                   	push   %ebx
 80486b5:	83 ec 08             	sub    $0x8,%esp
 80486b8:	e8 c3 fd ff ff       	call   8048480 <__x86.get_pc_thunk.bx>
 80486bd:	81 c3 43 19 00 00    	add    $0x1943,%ebx
 80486c3:	83 c4 08             	add    $0x8,%esp
 80486c6:	5b                   	pop    %ebx
 80486c7:	c3                   	ret    
