
skypillar:     file format elf32-i386


Disassembly of section .init:

08048538 <_init>:
 8048538:	53                   	push   %ebx
 8048539:	83 ec 08             	sub    $0x8,%esp
 804853c:	e8 2f 01 00 00       	call   8048670 <__x86.get_pc_thunk.bx>
 8048541:	81 c3 bf 2a 00 00    	add    $0x2abf,%ebx
 8048547:	8b 83 fc ff ff ff    	mov    -0x4(%ebx),%eax
 804854d:	85 c0                	test   %eax,%eax
 804854f:	74 05                	je     8048556 <_init+0x1e>
 8048551:	e8 da 00 00 00       	call   8048630 <.plt.got>
 8048556:	83 c4 08             	add    $0x8,%esp
 8048559:	5b                   	pop    %ebx
 804855a:	c3                   	ret    

Disassembly of section .plt:

08048560 <.plt>:
 8048560:	ff 35 04 b0 04 08    	pushl  0x804b004
 8048566:	ff 25 08 b0 04 08    	jmp    *0x804b008
 804856c:	00 00                	add    %al,(%eax)
	...

08048570 <round@plt>:
 8048570:	ff 25 0c b0 04 08    	jmp    *0x804b00c
 8048576:	68 00 00 00 00       	push   $0x0
 804857b:	e9 e0 ff ff ff       	jmp    8048560 <.plt>

08048580 <strcmp@plt>:
 8048580:	ff 25 10 b0 04 08    	jmp    *0x804b010
 8048586:	68 08 00 00 00       	push   $0x8
 804858b:	e9 d0 ff ff ff       	jmp    8048560 <.plt>

08048590 <printf@plt>:
 8048590:	ff 25 14 b0 04 08    	jmp    *0x804b014
 8048596:	68 10 00 00 00       	push   $0x10
 804859b:	e9 c0 ff ff ff       	jmp    8048560 <.plt>

080485a0 <strcspn@plt>:
 80485a0:	ff 25 18 b0 04 08    	jmp    *0x804b018
 80485a6:	68 18 00 00 00       	push   $0x18
 80485ab:	e9 b0 ff ff ff       	jmp    8048560 <.plt>

080485b0 <fgets@plt>:
 80485b0:	ff 25 1c b0 04 08    	jmp    *0x804b01c
 80485b6:	68 20 00 00 00       	push   $0x20
 80485bb:	e9 a0 ff ff ff       	jmp    8048560 <.plt>

080485c0 <__stack_chk_fail@plt>:
 80485c0:	ff 25 20 b0 04 08    	jmp    *0x804b020
 80485c6:	68 28 00 00 00       	push   $0x28
 80485cb:	e9 90 ff ff ff       	jmp    8048560 <.plt>

080485d0 <puts@plt>:
 80485d0:	ff 25 24 b0 04 08    	jmp    *0x804b024
 80485d6:	68 30 00 00 00       	push   $0x30
 80485db:	e9 80 ff ff ff       	jmp    8048560 <.plt>

080485e0 <exit@plt>:
 80485e0:	ff 25 28 b0 04 08    	jmp    *0x804b028
 80485e6:	68 38 00 00 00       	push   $0x38
 80485eb:	e9 70 ff ff ff       	jmp    8048560 <.plt>

080485f0 <__libc_start_main@plt>:
 80485f0:	ff 25 2c b0 04 08    	jmp    *0x804b02c
 80485f6:	68 40 00 00 00       	push   $0x40
 80485fb:	e9 60 ff ff ff       	jmp    8048560 <.plt>

08048600 <setvbuf@plt>:
 8048600:	ff 25 30 b0 04 08    	jmp    *0x804b030
 8048606:	68 48 00 00 00       	push   $0x48
 804860b:	e9 50 ff ff ff       	jmp    8048560 <.plt>

08048610 <__isoc99_scanf@plt>:
 8048610:	ff 25 34 b0 04 08    	jmp    *0x804b034
 8048616:	68 50 00 00 00       	push   $0x50
 804861b:	e9 40 ff ff ff       	jmp    8048560 <.plt>

08048620 <ptrace@plt>:
 8048620:	ff 25 38 b0 04 08    	jmp    *0x804b038
 8048626:	68 58 00 00 00       	push   $0x58
 804862b:	e9 30 ff ff ff       	jmp    8048560 <.plt>

Disassembly of section .plt.got:

08048630 <.plt.got>:
 8048630:	ff 25 fc af 04 08    	jmp    *0x804affc
 8048636:	66 90                	xchg   %ax,%ax

Disassembly of section .text:

08048640 <_start>:
 8048640:	31 ed                	xor    %ebp,%ebp
 8048642:	5e                   	pop    %esi
 8048643:	89 e1                	mov    %esp,%ecx
 8048645:	83 e4 f0             	and    $0xfffffff0,%esp
 8048648:	50                   	push   %eax
 8048649:	54                   	push   %esp
 804864a:	52                   	push   %edx
 804864b:	68 50 91 04 08       	push   $0x8049150
 8048650:	68 f0 90 04 08       	push   $0x80490f0
 8048655:	51                   	push   %ecx
 8048656:	56                   	push   %esi
 8048657:	68 02 8f 04 08       	push   $0x8048f02
 804865c:	e8 8f ff ff ff       	call   80485f0 <__libc_start_main@plt>
 8048661:	f4                   	hlt    
 8048662:	66 90                	xchg   %ax,%ax
 8048664:	66 90                	xchg   %ax,%ax
 8048666:	66 90                	xchg   %ax,%ax
 8048668:	66 90                	xchg   %ax,%ax
 804866a:	66 90                	xchg   %ax,%ax
 804866c:	66 90                	xchg   %ax,%ax
 804866e:	66 90                	xchg   %ax,%ax

08048670 <__x86.get_pc_thunk.bx>:
 8048670:	8b 1c 24             	mov    (%esp),%ebx
 8048673:	c3                   	ret    
 8048674:	66 90                	xchg   %ax,%ax
 8048676:	66 90                	xchg   %ax,%ax
 8048678:	66 90                	xchg   %ax,%ax
 804867a:	66 90                	xchg   %ax,%ax
 804867c:	66 90                	xchg   %ax,%ax
 804867e:	66 90                	xchg   %ax,%ax

08048680 <deregister_tm_clones>:
 8048680:	b8 47 b0 04 08       	mov    $0x804b047,%eax
 8048685:	2d 44 b0 04 08       	sub    $0x804b044,%eax
 804868a:	83 f8 06             	cmp    $0x6,%eax
 804868d:	76 1a                	jbe    80486a9 <deregister_tm_clones+0x29>
 804868f:	b8 00 00 00 00       	mov    $0x0,%eax
 8048694:	85 c0                	test   %eax,%eax
 8048696:	74 11                	je     80486a9 <deregister_tm_clones+0x29>
 8048698:	55                   	push   %ebp
 8048699:	89 e5                	mov    %esp,%ebp
 804869b:	83 ec 14             	sub    $0x14,%esp
 804869e:	68 44 b0 04 08       	push   $0x804b044
 80486a3:	ff d0                	call   *%eax
 80486a5:	83 c4 10             	add    $0x10,%esp
 80486a8:	c9                   	leave  
 80486a9:	f3 c3                	repz ret 
 80486ab:	90                   	nop
 80486ac:	8d 74 26 00          	lea    0x0(%esi,%eiz,1),%esi

080486b0 <register_tm_clones>:
 80486b0:	b8 44 b0 04 08       	mov    $0x804b044,%eax
 80486b5:	2d 44 b0 04 08       	sub    $0x804b044,%eax
 80486ba:	c1 f8 02             	sar    $0x2,%eax
 80486bd:	89 c2                	mov    %eax,%edx
 80486bf:	c1 ea 1f             	shr    $0x1f,%edx
 80486c2:	01 d0                	add    %edx,%eax
 80486c4:	d1 f8                	sar    %eax
 80486c6:	74 1b                	je     80486e3 <register_tm_clones+0x33>
 80486c8:	ba 00 00 00 00       	mov    $0x0,%edx
 80486cd:	85 d2                	test   %edx,%edx
 80486cf:	74 12                	je     80486e3 <register_tm_clones+0x33>
 80486d1:	55                   	push   %ebp
 80486d2:	89 e5                	mov    %esp,%ebp
 80486d4:	83 ec 10             	sub    $0x10,%esp
 80486d7:	50                   	push   %eax
 80486d8:	68 44 b0 04 08       	push   $0x804b044
 80486dd:	ff d2                	call   *%edx
 80486df:	83 c4 10             	add    $0x10,%esp
 80486e2:	c9                   	leave  
 80486e3:	f3 c3                	repz ret 
 80486e5:	8d 74 26 00          	lea    0x0(%esi,%eiz,1),%esi
 80486e9:	8d bc 27 00 00 00 00 	lea    0x0(%edi,%eiz,1),%edi

080486f0 <__do_global_dtors_aux>:
 80486f0:	80 3d 68 b0 04 08 00 	cmpb   $0x0,0x804b068
 80486f7:	75 13                	jne    804870c <__do_global_dtors_aux+0x1c>
 80486f9:	55                   	push   %ebp
 80486fa:	89 e5                	mov    %esp,%ebp
 80486fc:	83 ec 08             	sub    $0x8,%esp
 80486ff:	e8 7c ff ff ff       	call   8048680 <deregister_tm_clones>
 8048704:	c6 05 68 b0 04 08 01 	movb   $0x1,0x804b068
 804870b:	c9                   	leave  
 804870c:	f3 c3                	repz ret 
 804870e:	66 90                	xchg   %ax,%ax

08048710 <frame_dummy>:
 8048710:	b8 08 af 04 08       	mov    $0x804af08,%eax
 8048715:	8b 10                	mov    (%eax),%edx
 8048717:	85 d2                	test   %edx,%edx
 8048719:	75 05                	jne    8048720 <frame_dummy+0x10>
 804871b:	eb 93                	jmp    80486b0 <register_tm_clones>
 804871d:	8d 76 00             	lea    0x0(%esi),%esi
 8048720:	ba 00 00 00 00       	mov    $0x0,%edx
 8048725:	85 d2                	test   %edx,%edx
 8048727:	74 f2                	je     804871b <frame_dummy+0xb>
 8048729:	55                   	push   %ebp
 804872a:	89 e5                	mov    %esp,%ebp
 804872c:	83 ec 14             	sub    $0x14,%esp
 804872f:	50                   	push   %eax
 8048730:	ff d2                	call   *%edx
 8048732:	83 c4 10             	add    $0x10,%esp
 8048735:	c9                   	leave  
 8048736:	e9 75 ff ff ff       	jmp    80486b0 <register_tm_clones>

0804873b <levelone>:
 804873b:	55                   	push   %ebp
 804873c:	89 e5                	mov    %esp,%ebp
 804873e:	83 ec 48             	sub    $0x48,%esp
 8048741:	65 a1 14 00 00 00    	mov    %gs:0x14,%eax
 8048747:	89 45 f4             	mov    %eax,-0xc(%ebp)
 804874a:	31 c0                	xor    %eax,%eax
 804874c:	c7 45 bb 49 20 77 40 	movl   $0x40772049,-0x45(%ebp)
 8048753:	c7 45 bf 6e 6e 40 20 	movl   $0x20406e6e,-0x41(%ebp)
 804875a:	c7 45 c3 62 65 20 74 	movl   $0x74206562,-0x3d(%ebp)
 8048761:	c7 45 c7 68 65 20 76 	movl   $0x76206568,-0x39(%ebp)
 8048768:	c7 45 cb 65 72 79 20 	movl   $0x20797265,-0x35(%ebp)
 804876f:	c7 45 cf 62 65 73 74 	movl   $0x74736562,-0x31(%ebp)
 8048776:	c6 45 d3 00          	movb   $0x0,-0x2d(%ebp)
 804877a:	83 ec 0c             	sub    $0xc,%esp
 804877d:	68 70 91 04 08       	push   $0x8049170
 8048782:	e8 49 fe ff ff       	call   80485d0 <puts@plt>
 8048787:	83 c4 10             	add    $0x10,%esp
 804878a:	83 ec 0c             	sub    $0xc,%esp
 804878d:	68 b8 91 04 08       	push   $0x80491b8
 8048792:	e8 39 fe ff ff       	call   80485d0 <puts@plt>
 8048797:	83 c4 10             	add    $0x10,%esp
 804879a:	83 ec 0c             	sub    $0xc,%esp
 804879d:	68 70 91 04 08       	push   $0x8049170
 80487a2:	e8 29 fe ff ff       	call   80485d0 <puts@plt>
 80487a7:	83 c4 10             	add    $0x10,%esp
 80487aa:	83 ec 0c             	sub    $0xc,%esp
 80487ad:	68 fd 91 04 08       	push   $0x80491fd
 80487b2:	e8 d9 fd ff ff       	call   8048590 <printf@plt>
 80487b7:	83 c4 10             	add    $0x10,%esp
 80487ba:	a1 60 b0 04 08       	mov    0x804b060,%eax
 80487bf:	83 ec 04             	sub    $0x4,%esp
 80487c2:	50                   	push   %eax
 80487c3:	6a 20                	push   $0x20
 80487c5:	8d 45 d4             	lea    -0x2c(%ebp),%eax
 80487c8:	50                   	push   %eax
 80487c9:	e8 e2 fd ff ff       	call   80485b0 <fgets@plt>
 80487ce:	83 c4 10             	add    $0x10,%esp
 80487d1:	83 ec 08             	sub    $0x8,%esp
 80487d4:	68 0a 92 04 08       	push   $0x804920a
 80487d9:	8d 45 d4             	lea    -0x2c(%ebp),%eax
 80487dc:	50                   	push   %eax
 80487dd:	e8 be fd ff ff       	call   80485a0 <strcspn@plt>
 80487e2:	83 c4 10             	add    $0x10,%esp
 80487e5:	c6 44 05 d4 00       	movb   $0x0,-0x2c(%ebp,%eax,1)
 80487ea:	83 ec 08             	sub    $0x8,%esp
 80487ed:	8d 45 d4             	lea    -0x2c(%ebp),%eax
 80487f0:	50                   	push   %eax
 80487f1:	8d 45 bb             	lea    -0x45(%ebp),%eax
 80487f4:	50                   	push   %eax
 80487f5:	e8 86 fd ff ff       	call   8048580 <strcmp@plt>
 80487fa:	83 c4 10             	add    $0x10,%esp
 80487fd:	85 c0                	test   %eax,%eax
 80487ff:	75 07                	jne    8048808 <levelone+0xcd>
 8048801:	b8 01 00 00 00       	mov    $0x1,%eax
 8048806:	eb 05                	jmp    804880d <levelone+0xd2>
 8048808:	b8 00 00 00 00       	mov    $0x0,%eax
 804880d:	8b 55 f4             	mov    -0xc(%ebp),%edx
 8048810:	65 33 15 14 00 00 00 	xor    %gs:0x14,%edx
 8048817:	74 05                	je     804881e <levelone+0xe3>
 8048819:	e8 a2 fd ff ff       	call   80485c0 <__stack_chk_fail@plt>
 804881e:	c9                   	leave  
 804881f:	c3                   	ret    

08048820 <leveltwo>:
 8048820:	55                   	push   %ebp
 8048821:	89 e5                	mov    %esp,%ebp
 8048823:	83 ec 38             	sub    $0x38,%esp
 8048826:	65 a1 14 00 00 00    	mov    %gs:0x14,%eax
 804882c:	89 45 f4             	mov    %eax,-0xc(%ebp)
 804882f:	31 c0                	xor    %eax,%eax
 8048831:	83 ec 0c             	sub    $0xc,%esp
 8048834:	68 70 91 04 08       	push   $0x8049170
 8048839:	e8 92 fd ff ff       	call   80485d0 <puts@plt>
 804883e:	83 c4 10             	add    $0x10,%esp
 8048841:	83 ec 0c             	sub    $0xc,%esp
 8048844:	68 0c 92 04 08       	push   $0x804920c
 8048849:	e8 82 fd ff ff       	call   80485d0 <puts@plt>
 804884e:	83 c4 10             	add    $0x10,%esp
 8048851:	83 ec 0c             	sub    $0xc,%esp
 8048854:	68 70 91 04 08       	push   $0x8049170
 8048859:	e8 72 fd ff ff       	call   80485d0 <puts@plt>
 804885e:	83 c4 10             	add    $0x10,%esp
 8048861:	83 ec 0c             	sub    $0xc,%esp
 8048864:	68 fd 91 04 08       	push   $0x80491fd
 8048869:	e8 22 fd ff ff       	call   8048590 <printf@plt>
 804886e:	83 c4 10             	add    $0x10,%esp
 8048871:	83 ec 08             	sub    $0x8,%esp
 8048874:	8d 45 e0             	lea    -0x20(%ebp),%eax
 8048877:	83 c0 14             	add    $0x14,%eax
 804887a:	50                   	push   %eax
 804887b:	8d 45 e0             	lea    -0x20(%ebp),%eax
 804887e:	83 c0 10             	add    $0x10,%eax
 8048881:	50                   	push   %eax
 8048882:	8d 45 e0             	lea    -0x20(%ebp),%eax
 8048885:	83 c0 0c             	add    $0xc,%eax
 8048888:	50                   	push   %eax
 8048889:	8d 45 e0             	lea    -0x20(%ebp),%eax
 804888c:	83 c0 08             	add    $0x8,%eax
 804888f:	50                   	push   %eax
 8048890:	8d 45 e0             	lea    -0x20(%ebp),%eax
 8048893:	83 c0 04             	add    $0x4,%eax
 8048896:	50                   	push   %eax
 8048897:	68 51 92 04 08       	push   $0x8049251
 804889c:	e8 6f fd ff ff       	call   8048610 <__isoc99_scanf@plt>
 80488a1:	83 c4 20             	add    $0x20,%esp
 80488a4:	c7 45 e0 01 00 00 00 	movl   $0x1,-0x20(%ebp)
 80488ab:	c7 45 d4 07 00 00 00 	movl   $0x7,-0x2c(%ebp)
 80488b2:	c7 45 d8 0a 00 00 00 	movl   $0xa,-0x28(%ebp)
 80488b9:	c7 45 dc 01 00 00 00 	movl   $0x1,-0x24(%ebp)
 80488c0:	eb 37                	jmp    80488f9 <leveltwo+0xd9>
 80488c2:	8b 45 dc             	mov    -0x24(%ebp),%eax
 80488c5:	8b 54 85 e0          	mov    -0x20(%ebp,%eax,4),%edx
 80488c9:	8b 45 dc             	mov    -0x24(%ebp),%eax
 80488cc:	83 e8 01             	sub    $0x1,%eax
 80488cf:	8b 44 85 e0          	mov    -0x20(%ebp,%eax,4),%eax
 80488d3:	0f af 45 d4          	imul   -0x2c(%ebp),%eax
 80488d7:	89 c1                	mov    %eax,%ecx
 80488d9:	8b 45 d8             	mov    -0x28(%ebp),%eax
 80488dc:	01 c8                	add    %ecx,%eax
 80488de:	39 c2                	cmp    %eax,%edx
 80488e0:	74 07                	je     80488e9 <leveltwo+0xc9>
 80488e2:	b8 00 00 00 00       	mov    $0x0,%eax
 80488e7:	eb 1d                	jmp    8048906 <leveltwo+0xe6>
 80488e9:	83 45 dc 01          	addl   $0x1,-0x24(%ebp)
 80488ed:	8b 45 d4             	mov    -0x2c(%ebp),%eax
 80488f0:	31 45 d8             	xor    %eax,-0x28(%ebp)
 80488f3:	8b 45 d8             	mov    -0x28(%ebp),%eax
 80488f6:	31 45 d4             	xor    %eax,-0x2c(%ebp)
 80488f9:	8b 45 dc             	mov    -0x24(%ebp),%eax
 80488fc:	83 f8 04             	cmp    $0x4,%eax
 80488ff:	76 c1                	jbe    80488c2 <leveltwo+0xa2>
 8048901:	b8 01 00 00 00       	mov    $0x1,%eax
 8048906:	8b 55 f4             	mov    -0xc(%ebp),%edx
 8048909:	65 33 15 14 00 00 00 	xor    %gs:0x14,%edx
 8048910:	74 05                	je     8048917 <leveltwo+0xf7>
 8048912:	e8 a9 fc ff ff       	call   80485c0 <__stack_chk_fail@plt>
 8048917:	c9                   	leave  
 8048918:	c3                   	ret    

08048919 <magic>:
 8048919:	55                   	push   %ebp
 804891a:	89 e5                	mov    %esp,%ebp
 804891c:	83 ec 28             	sub    $0x28,%esp
 804891f:	8b 45 08             	mov    0x8(%ebp),%eax
 8048922:	88 45 e4             	mov    %al,-0x1c(%ebp)
 8048925:	65 a1 14 00 00 00    	mov    %gs:0x14,%eax
 804892b:	89 45 f4             	mov    %eax,-0xc(%ebp)
 804892e:	31 c0                	xor    %eax,%eax
 8048930:	c7 45 f0 00 00 00 00 	movl   $0x0,-0x10(%ebp)
 8048937:	c7 45 f0 00 00 00 00 	movl   $0x0,-0x10(%ebp)
 804893e:	eb 0d                	jmp    804894d <magic+0x34>
 8048940:	0f be 45 e4          	movsbl -0x1c(%ebp),%eax
 8048944:	83 e0 01             	and    $0x1,%eax
 8048947:	01 45 f0             	add    %eax,-0x10(%ebp)
 804894a:	d0 7d e4             	sarb   -0x1c(%ebp)
 804894d:	80 7d e4 00          	cmpb   $0x0,-0x1c(%ebp)
 8048951:	75 ed                	jne    8048940 <magic+0x27>
 8048953:	8b 45 f0             	mov    -0x10(%ebp),%eax
 8048956:	8b 55 f4             	mov    -0xc(%ebp),%edx
 8048959:	65 33 15 14 00 00 00 	xor    %gs:0x14,%edx
 8048960:	74 05                	je     8048967 <magic+0x4e>
 8048962:	e8 59 fc ff ff       	call   80485c0 <__stack_chk_fail@plt>
 8048967:	c9                   	leave  
 8048968:	c3                   	ret    

08048969 <levelthree>:
 8048969:	55                   	push   %ebp
 804896a:	89 e5                	mov    %esp,%ebp
 804896c:	83 ec 18             	sub    $0x18,%esp
 804896f:	65 a1 14 00 00 00    	mov    %gs:0x14,%eax
 8048975:	89 45 f4             	mov    %eax,-0xc(%ebp)
 8048978:	31 c0                	xor    %eax,%eax
 804897a:	83 ec 0c             	sub    $0xc,%esp
 804897d:	68 70 91 04 08       	push   $0x8049170
 8048982:	e8 49 fc ff ff       	call   80485d0 <puts@plt>
 8048987:	83 c4 10             	add    $0x10,%esp
 804898a:	83 ec 0c             	sub    $0xc,%esp
 804898d:	68 60 92 04 08       	push   $0x8049260
 8048992:	e8 39 fc ff ff       	call   80485d0 <puts@plt>
 8048997:	83 c4 10             	add    $0x10,%esp
 804899a:	83 ec 0c             	sub    $0xc,%esp
 804899d:	68 70 91 04 08       	push   $0x8049170
 80489a2:	e8 29 fc ff ff       	call   80485d0 <puts@plt>
 80489a7:	83 c4 10             	add    $0x10,%esp
 80489aa:	83 ec 0c             	sub    $0xc,%esp
 80489ad:	68 a5 92 04 08       	push   $0x80492a5
 80489b2:	e8 d9 fb ff ff       	call   8048590 <printf@plt>
 80489b7:	83 c4 10             	add    $0x10,%esp
 80489ba:	83 ec 08             	sub    $0x8,%esp
 80489bd:	8d 45 f3             	lea    -0xd(%ebp),%eax
 80489c0:	50                   	push   %eax
 80489c1:	8d 45 f2             	lea    -0xe(%ebp),%eax
 80489c4:	50                   	push   %eax
 80489c5:	8d 45 f1             	lea    -0xf(%ebp),%eax
 80489c8:	50                   	push   %eax
 80489c9:	8d 45 f0             	lea    -0x10(%ebp),%eax
 80489cc:	50                   	push   %eax
 80489cd:	8d 45 ef             	lea    -0x11(%ebp),%eax
 80489d0:	50                   	push   %eax
 80489d1:	68 b2 92 04 08       	push   $0x80492b2
 80489d6:	e8 35 fc ff ff       	call   8048610 <__isoc99_scanf@plt>
 80489db:	83 c4 20             	add    $0x20,%esp
 80489de:	0f b6 45 ef          	movzbl -0x11(%ebp),%eax
 80489e2:	0f be c0             	movsbl %al,%eax
 80489e5:	83 ec 0c             	sub    $0xc,%esp
 80489e8:	50                   	push   %eax
 80489e9:	e8 2b ff ff ff       	call   8048919 <magic>
 80489ee:	83 c4 10             	add    $0x10,%esp
 80489f1:	83 f8 03             	cmp    $0x3,%eax
 80489f4:	0f 84 b5 00 00 00    	je     8048aaf <levelthree+0x146>
 80489fa:	83 f8 03             	cmp    $0x3,%eax
 80489fd:	7f 07                	jg     8048a06 <levelthree+0x9d>
 80489ff:	83 f8 02             	cmp    $0x2,%eax
 8048a02:	74 1e                	je     8048a22 <levelthree+0xb9>
 8048a04:	eb 12                	jmp    8048a18 <levelthree+0xaf>
 8048a06:	83 f8 04             	cmp    $0x4,%eax
 8048a09:	0f 84 29 01 00 00    	je     8048b38 <levelthree+0x1cf>
 8048a0f:	83 f8 05             	cmp    $0x5,%eax
 8048a12:	0f 84 a9 01 00 00    	je     8048bc1 <levelthree+0x258>
 8048a18:	b8 00 00 00 00       	mov    $0x0,%eax
 8048a1d:	e9 21 02 00 00       	jmp    8048c43 <levelthree+0x2da>
 8048a22:	90                   	nop
 8048a23:	eb 04                	jmp    8048a29 <levelthree+0xc0>
 8048a25:	90                   	nop
 8048a26:	eb 01                	jmp    8048a29 <levelthree+0xc0>
 8048a28:	90                   	nop
 8048a29:	0f b6 45 f0          	movzbl -0x10(%ebp),%eax
 8048a2d:	0f be c0             	movsbl %al,%eax
 8048a30:	83 ec 0c             	sub    $0xc,%esp
 8048a33:	50                   	push   %eax
 8048a34:	e8 e0 fe ff ff       	call   8048919 <magic>
 8048a39:	83 c4 10             	add    $0x10,%esp
 8048a3c:	83 f8 01             	cmp    $0x1,%eax
 8048a3f:	75 64                	jne    8048aa5 <levelthree+0x13c>
 8048a41:	0f b6 45 f1          	movzbl -0xf(%ebp),%eax
 8048a45:	0f be c0             	movsbl %al,%eax
 8048a48:	83 ec 0c             	sub    $0xc,%esp
 8048a4b:	50                   	push   %eax
 8048a4c:	e8 c8 fe ff ff       	call   8048919 <magic>
 8048a51:	83 c4 10             	add    $0x10,%esp
 8048a54:	83 f8 03             	cmp    $0x3,%eax
 8048a57:	0f 85 67 01 00 00    	jne    8048bc4 <levelthree+0x25b>
 8048a5d:	0f b6 45 f2          	movzbl -0xe(%ebp),%eax
 8048a61:	0f be c0             	movsbl %al,%eax
 8048a64:	83 ec 0c             	sub    $0xc,%esp
 8048a67:	50                   	push   %eax
 8048a68:	e8 ac fe ff ff       	call   8048919 <magic>
 8048a6d:	83 c4 10             	add    $0x10,%esp
 8048a70:	83 f8 02             	cmp    $0x2,%eax
 8048a73:	75 26                	jne    8048a9b <levelthree+0x132>
 8048a75:	0f b6 45 f3          	movzbl -0xd(%ebp),%eax
 8048a79:	0f be c0             	movsbl %al,%eax
 8048a7c:	83 ec 0c             	sub    $0xc,%esp
 8048a7f:	50                   	push   %eax
 8048a80:	e8 94 fe ff ff       	call   8048919 <magic>
 8048a85:	83 c4 10             	add    $0x10,%esp
 8048a88:	83 f8 04             	cmp    $0x4,%eax
 8048a8b:	0f 85 aa 00 00 00    	jne    8048b3b <levelthree+0x1d2>
 8048a91:	b8 01 00 00 00       	mov    $0x1,%eax
 8048a96:	e9 a8 01 00 00       	jmp    8048c43 <levelthree+0x2da>
 8048a9b:	b8 00 00 00 00       	mov    $0x0,%eax
 8048aa0:	e9 9e 01 00 00       	jmp    8048c43 <levelthree+0x2da>
 8048aa5:	b8 00 00 00 00       	mov    $0x0,%eax
 8048aaa:	e9 94 01 00 00       	jmp    8048c43 <levelthree+0x2da>
 8048aaf:	90                   	nop
 8048ab0:	eb 04                	jmp    8048ab6 <levelthree+0x14d>
 8048ab2:	90                   	nop
 8048ab3:	eb 01                	jmp    8048ab6 <levelthree+0x14d>
 8048ab5:	90                   	nop
 8048ab6:	0f b6 45 f0          	movzbl -0x10(%ebp),%eax
 8048aba:	0f be c0             	movsbl %al,%eax
 8048abd:	83 ec 0c             	sub    $0xc,%esp
 8048ac0:	50                   	push   %eax
 8048ac1:	e8 53 fe ff ff       	call   8048919 <magic>
 8048ac6:	83 c4 10             	add    $0x10,%esp
 8048ac9:	83 f8 03             	cmp    $0x3,%eax
 8048acc:	75 60                	jne    8048b2e <levelthree+0x1c5>
 8048ace:	0f b6 45 f1          	movzbl -0xf(%ebp),%eax
 8048ad2:	0f be c0             	movsbl %al,%eax
 8048ad5:	83 ec 0c             	sub    $0xc,%esp
 8048ad8:	50                   	push   %eax
 8048ad9:	e8 3b fe ff ff       	call   8048919 <magic>
 8048ade:	83 c4 10             	add    $0x10,%esp
 8048ae1:	83 f8 05             	cmp    $0x5,%eax
 8048ae4:	75 3e                	jne    8048b24 <levelthree+0x1bb>
 8048ae6:	0f b6 45 f2          	movzbl -0xe(%ebp),%eax
 8048aea:	0f be c0             	movsbl %al,%eax
 8048aed:	83 ec 0c             	sub    $0xc,%esp
 8048af0:	50                   	push   %eax
 8048af1:	e8 23 fe ff ff       	call   8048919 <magic>
 8048af6:	83 c4 10             	add    $0x10,%esp
 8048af9:	83 f8 02             	cmp    $0x2,%eax
 8048afc:	75 40                	jne    8048b3e <levelthree+0x1d5>
 8048afe:	0f b6 45 f3          	movzbl -0xd(%ebp),%eax
 8048b02:	0f be c0             	movsbl %al,%eax
 8048b05:	83 ec 0c             	sub    $0xc,%esp
 8048b08:	50                   	push   %eax
 8048b09:	e8 0b fe ff ff       	call   8048919 <magic>
 8048b0e:	83 c4 10             	add    $0x10,%esp
 8048b11:	83 f8 02             	cmp    $0x2,%eax
 8048b14:	0f 84 0b ff ff ff    	je     8048a25 <levelthree+0xbc>
 8048b1a:	b8 00 00 00 00       	mov    $0x0,%eax
 8048b1f:	e9 1f 01 00 00       	jmp    8048c43 <levelthree+0x2da>
 8048b24:	b8 00 00 00 00       	mov    $0x0,%eax
 8048b29:	e9 15 01 00 00       	jmp    8048c43 <levelthree+0x2da>
 8048b2e:	b8 00 00 00 00       	mov    $0x0,%eax
 8048b33:	e9 0b 01 00 00       	jmp    8048c43 <levelthree+0x2da>
 8048b38:	90                   	nop
 8048b39:	eb 04                	jmp    8048b3f <levelthree+0x1d6>
 8048b3b:	90                   	nop
 8048b3c:	eb 01                	jmp    8048b3f <levelthree+0x1d6>
 8048b3e:	90                   	nop
 8048b3f:	0f b6 45 f0          	movzbl -0x10(%ebp),%eax
 8048b43:	0f be c0             	movsbl %al,%eax
 8048b46:	83 ec 0c             	sub    $0xc,%esp
 8048b49:	50                   	push   %eax
 8048b4a:	e8 ca fd ff ff       	call   8048919 <magic>
 8048b4f:	83 c4 10             	add    $0x10,%esp
 8048b52:	83 f8 02             	cmp    $0x2,%eax
 8048b55:	75 60                	jne    8048bb7 <levelthree+0x24e>
 8048b57:	0f b6 45 f1          	movzbl -0xf(%ebp),%eax
 8048b5b:	0f be c0             	movsbl %al,%eax
 8048b5e:	83 ec 0c             	sub    $0xc,%esp
 8048b61:	50                   	push   %eax
 8048b62:	e8 b2 fd ff ff       	call   8048919 <magic>
 8048b67:	83 c4 10             	add    $0x10,%esp
 8048b6a:	83 f8 01             	cmp    $0x1,%eax
 8048b6d:	0f 85 3f ff ff ff    	jne    8048ab2 <levelthree+0x149>
 8048b73:	0f b6 45 f2          	movzbl -0xe(%ebp),%eax
 8048b77:	0f be c0             	movsbl %al,%eax
 8048b7a:	83 ec 0c             	sub    $0xc,%esp
 8048b7d:	50                   	push   %eax
 8048b7e:	e8 96 fd ff ff       	call   8048919 <magic>
 8048b83:	83 c4 10             	add    $0x10,%esp
 8048b86:	83 f8 05             	cmp    $0x5,%eax
 8048b89:	75 22                	jne    8048bad <levelthree+0x244>
 8048b8b:	0f b6 45 f3          	movzbl -0xd(%ebp),%eax
 8048b8f:	0f be c0             	movsbl %al,%eax
 8048b92:	83 ec 0c             	sub    $0xc,%esp
 8048b95:	50                   	push   %eax
 8048b96:	e8 7e fd ff ff       	call   8048919 <magic>
 8048b9b:	83 c4 10             	add    $0x10,%esp
 8048b9e:	83 f8 01             	cmp    $0x1,%eax
 8048ba1:	75 24                	jne    8048bc7 <levelthree+0x25e>
 8048ba3:	b8 00 00 00 00       	mov    $0x0,%eax
 8048ba8:	e9 96 00 00 00       	jmp    8048c43 <levelthree+0x2da>
 8048bad:	b8 00 00 00 00       	mov    $0x0,%eax
 8048bb2:	e9 8c 00 00 00       	jmp    8048c43 <levelthree+0x2da>
 8048bb7:	b8 00 00 00 00       	mov    $0x0,%eax
 8048bbc:	e9 82 00 00 00       	jmp    8048c43 <levelthree+0x2da>
 8048bc1:	90                   	nop
 8048bc2:	eb 04                	jmp    8048bc8 <levelthree+0x25f>
 8048bc4:	90                   	nop
 8048bc5:	eb 01                	jmp    8048bc8 <levelthree+0x25f>
 8048bc7:	90                   	nop
 8048bc8:	0f b6 45 f0          	movzbl -0x10(%ebp),%eax
 8048bcc:	0f be c0             	movsbl %al,%eax
 8048bcf:	83 ec 0c             	sub    $0xc,%esp
 8048bd2:	50                   	push   %eax
 8048bd3:	e8 41 fd ff ff       	call   8048919 <magic>
 8048bd8:	83 c4 10             	add    $0x10,%esp
 8048bdb:	83 f8 05             	cmp    $0x5,%eax
 8048bde:	75 5e                	jne    8048c3e <levelthree+0x2d5>
 8048be0:	0f b6 45 f1          	movzbl -0xf(%ebp),%eax
 8048be4:	0f be c0             	movsbl %al,%eax
 8048be7:	83 ec 0c             	sub    $0xc,%esp
 8048bea:	50                   	push   %eax
 8048beb:	e8 29 fd ff ff       	call   8048919 <magic>
 8048bf0:	83 c4 10             	add    $0x10,%esp
 8048bf3:	83 f8 03             	cmp    $0x3,%eax
 8048bf6:	0f 85 2c fe ff ff    	jne    8048a28 <levelthree+0xbf>
 8048bfc:	0f b6 45 f2          	movzbl -0xe(%ebp),%eax
 8048c00:	0f be c0             	movsbl %al,%eax
 8048c03:	83 ec 0c             	sub    $0xc,%esp
 8048c06:	50                   	push   %eax
 8048c07:	e8 0d fd ff ff       	call   8048919 <magic>
 8048c0c:	83 c4 10             	add    $0x10,%esp
 8048c0f:	83 f8 05             	cmp    $0x5,%eax
 8048c12:	75 23                	jne    8048c37 <levelthree+0x2ce>
 8048c14:	0f b6 45 f3          	movzbl -0xd(%ebp),%eax
 8048c18:	0f be c0             	movsbl %al,%eax
 8048c1b:	83 ec 0c             	sub    $0xc,%esp
 8048c1e:	50                   	push   %eax
 8048c1f:	e8 f5 fc ff ff       	call   8048919 <magic>
 8048c24:	83 c4 10             	add    $0x10,%esp
 8048c27:	83 f8 04             	cmp    $0x4,%eax
 8048c2a:	0f 84 85 fe ff ff    	je     8048ab5 <levelthree+0x14c>
 8048c30:	b8 00 00 00 00       	mov    $0x0,%eax
 8048c35:	eb 0c                	jmp    8048c43 <levelthree+0x2da>
 8048c37:	b8 00 00 00 00       	mov    $0x0,%eax
 8048c3c:	eb 05                	jmp    8048c43 <levelthree+0x2da>
 8048c3e:	b8 00 00 00 00       	mov    $0x0,%eax
 8048c43:	8b 55 f4             	mov    -0xc(%ebp),%edx
 8048c46:	65 33 15 14 00 00 00 	xor    %gs:0x14,%edx
 8048c4d:	74 05                	je     8048c54 <levelthree+0x2eb>
 8048c4f:	e8 6c f9 ff ff       	call   80485c0 <__stack_chk_fail@plt>
 8048c54:	c9                   	leave  
 8048c55:	c3                   	ret    

08048c56 <rabbit_hole>:
 8048c56:	55                   	push   %ebp
 8048c57:	89 e5                	mov    %esp,%ebp
 8048c59:	53                   	push   %ebx
 8048c5a:	83 ec 24             	sub    $0x24,%esp
 8048c5d:	8b 45 08             	mov    0x8(%ebp),%eax
 8048c60:	89 45 e4             	mov    %eax,-0x1c(%ebp)
 8048c63:	65 a1 14 00 00 00    	mov    %gs:0x14,%eax
 8048c69:	89 45 f4             	mov    %eax,-0xc(%ebp)
 8048c6c:	31 c0                	xor    %eax,%eax
 8048c6e:	83 7d e4 00          	cmpl   $0x0,-0x1c(%ebp)
 8048c72:	7f 07                	jg     8048c7b <rabbit_hole+0x25>
 8048c74:	b8 01 00 00 00       	mov    $0x1,%eax
 8048c79:	eb 28                	jmp    8048ca3 <rabbit_hole+0x4d>
 8048c7b:	8b 45 e4             	mov    -0x1c(%ebp),%eax
 8048c7e:	83 e8 02             	sub    $0x2,%eax
 8048c81:	83 ec 0c             	sub    $0xc,%esp
 8048c84:	50                   	push   %eax
 8048c85:	e8 cc ff ff ff       	call   8048c56 <rabbit_hole>
 8048c8a:	83 c4 10             	add    $0x10,%esp
 8048c8d:	89 c3                	mov    %eax,%ebx
 8048c8f:	8b 45 e4             	mov    -0x1c(%ebp),%eax
 8048c92:	83 e8 04             	sub    $0x4,%eax
 8048c95:	83 ec 0c             	sub    $0xc,%esp
 8048c98:	50                   	push   %eax
 8048c99:	e8 b8 ff ff ff       	call   8048c56 <rabbit_hole>
 8048c9e:	83 c4 10             	add    $0x10,%esp
 8048ca1:	01 d8                	add    %ebx,%eax
 8048ca3:	8b 55 f4             	mov    -0xc(%ebp),%edx
 8048ca6:	65 33 15 14 00 00 00 	xor    %gs:0x14,%edx
 8048cad:	74 05                	je     8048cb4 <rabbit_hole+0x5e>
 8048caf:	e8 0c f9 ff ff       	call   80485c0 <__stack_chk_fail@plt>
 8048cb4:	8b 5d fc             	mov    -0x4(%ebp),%ebx
 8048cb7:	c9                   	leave  
 8048cb8:	c3                   	ret    

08048cb9 <levelfour>:
 8048cb9:	55                   	push   %ebp
 8048cba:	89 e5                	mov    %esp,%ebp
 8048cbc:	83 ec 18             	sub    $0x18,%esp
 8048cbf:	65 a1 14 00 00 00    	mov    %gs:0x14,%eax
 8048cc5:	89 45 f4             	mov    %eax,-0xc(%ebp)
 8048cc8:	31 c0                	xor    %eax,%eax
 8048cca:	83 ec 0c             	sub    $0xc,%esp
 8048ccd:	68 70 91 04 08       	push   $0x8049170
 8048cd2:	e8 f9 f8 ff ff       	call   80485d0 <puts@plt>
 8048cd7:	83 c4 10             	add    $0x10,%esp
 8048cda:	83 ec 0c             	sub    $0xc,%esp
 8048cdd:	68 c4 92 04 08       	push   $0x80492c4
 8048ce2:	e8 e9 f8 ff ff       	call   80485d0 <puts@plt>
 8048ce7:	83 c4 10             	add    $0x10,%esp
 8048cea:	83 ec 0c             	sub    $0xc,%esp
 8048ced:	68 70 91 04 08       	push   $0x8049170
 8048cf2:	e8 d9 f8 ff ff       	call   80485d0 <puts@plt>
 8048cf7:	83 c4 10             	add    $0x10,%esp
 8048cfa:	83 ec 0c             	sub    $0xc,%esp
 8048cfd:	68 a5 92 04 08       	push   $0x80492a5
 8048d02:	e8 89 f8 ff ff       	call   8048590 <printf@plt>
 8048d07:	83 c4 10             	add    $0x10,%esp
 8048d0a:	83 ec 08             	sub    $0x8,%esp
 8048d0d:	8d 45 f0             	lea    -0x10(%ebp),%eax
 8048d10:	50                   	push   %eax
 8048d11:	68 09 93 04 08       	push   $0x8049309
 8048d16:	e8 f5 f8 ff ff       	call   8048610 <__isoc99_scanf@plt>
 8048d1b:	83 c4 10             	add    $0x10,%esp
 8048d1e:	8b 45 f0             	mov    -0x10(%ebp),%eax
 8048d21:	c1 f8 03             	sar    $0x3,%eax
 8048d24:	83 ec 0c             	sub    $0xc,%esp
 8048d27:	50                   	push   %eax
 8048d28:	e8 29 ff ff ff       	call   8048c56 <rabbit_hole>
 8048d2d:	83 c4 10             	add    $0x10,%esp
 8048d30:	3d a2 0e c5 03       	cmp    $0x3c50ea2,%eax
 8048d35:	74 07                	je     8048d3e <levelfour+0x85>
 8048d37:	b8 00 00 00 00       	mov    $0x0,%eax
 8048d3c:	eb 05                	jmp    8048d43 <levelfour+0x8a>
 8048d3e:	b8 01 00 00 00       	mov    $0x1,%eax
 8048d43:	8b 55 f4             	mov    -0xc(%ebp),%edx
 8048d46:	65 33 15 14 00 00 00 	xor    %gs:0x14,%edx
 8048d4d:	74 05                	je     8048d54 <levelfour+0x9b>
 8048d4f:	e8 6c f8 ff ff       	call   80485c0 <__stack_chk_fail@plt>
 8048d54:	c9                   	leave  
 8048d55:	c3                   	ret    

08048d56 <ayylmao>:
 8048d56:	55                   	push   %ebp
 8048d57:	89 e5                	mov    %esp,%ebp
 8048d59:	83 ec 38             	sub    $0x38,%esp
 8048d5c:	8b 45 08             	mov    0x8(%ebp),%eax
 8048d5f:	89 45 d4             	mov    %eax,-0x2c(%ebp)
 8048d62:	65 a1 14 00 00 00    	mov    %gs:0x14,%eax
 8048d68:	89 45 f4             	mov    %eax,-0xc(%ebp)
 8048d6b:	31 c0                	xor    %eax,%eax
 8048d6d:	d9 05 f8 96 04 08    	flds   0x80496f8
 8048d73:	d9 5d ec             	fstps  -0x14(%ebp)
 8048d76:	d9 45 d4             	flds   -0x2c(%ebp)
 8048d79:	d9 05 fc 96 04 08    	flds   0x80496fc
 8048d7f:	de c9                	fmulp  %st,%st(1)
 8048d81:	d9 5d f0             	fstps  -0x10(%ebp)
 8048d84:	d9 45 d4             	flds   -0x2c(%ebp)
 8048d87:	d9 5d e8             	fstps  -0x18(%ebp)
 8048d8a:	8d 45 e8             	lea    -0x18(%ebp),%eax
 8048d8d:	8b 00                	mov    (%eax),%eax
 8048d8f:	89 45 e4             	mov    %eax,-0x1c(%ebp)
 8048d92:	8b 45 e4             	mov    -0x1c(%ebp),%eax
 8048d95:	d1 f8                	sar    %eax
 8048d97:	ba df 59 37 5f       	mov    $0x5f3759df,%edx
 8048d9c:	29 c2                	sub    %eax,%edx
 8048d9e:	89 d0                	mov    %edx,%eax
 8048da0:	89 45 e4             	mov    %eax,-0x1c(%ebp)
 8048da3:	8d 45 e4             	lea    -0x1c(%ebp),%eax
 8048da6:	d9 00                	flds   (%eax)
 8048da8:	d9 5d e8             	fstps  -0x18(%ebp)
 8048dab:	d9 45 e8             	flds   -0x18(%ebp)
 8048dae:	d8 4d f0             	fmuls  -0x10(%ebp)
 8048db1:	d9 45 e8             	flds   -0x18(%ebp)
 8048db4:	de c9                	fmulp  %st,%st(1)
 8048db6:	d9 45 ec             	flds   -0x14(%ebp)
 8048db9:	de e1                	fsubp  %st,%st(1)
 8048dbb:	d9 45 e8             	flds   -0x18(%ebp)
 8048dbe:	de c9                	fmulp  %st,%st(1)
 8048dc0:	d9 5d e8             	fstps  -0x18(%ebp)
 8048dc3:	d9 45 e8             	flds   -0x18(%ebp)
 8048dc6:	8b 45 f4             	mov    -0xc(%ebp),%eax
 8048dc9:	65 33 05 14 00 00 00 	xor    %gs:0x14,%eax
 8048dd0:	74 07                	je     8048dd9 <ayylmao+0x83>
 8048dd2:	dd d8                	fstp   %st(0)
 8048dd4:	e8 e7 f7 ff ff       	call   80485c0 <__stack_chk_fail@plt>
 8048dd9:	c9                   	leave  
 8048dda:	c3                   	ret    

08048ddb <levelfive>:
 8048ddb:	55                   	push   %ebp
 8048ddc:	89 e5                	mov    %esp,%ebp
 8048dde:	83 ec 58             	sub    $0x58,%esp
 8048de1:	65 a1 14 00 00 00    	mov    %gs:0x14,%eax
 8048de7:	89 45 f4             	mov    %eax,-0xc(%ebp)
 8048dea:	31 c0                	xor    %eax,%eax
 8048dec:	c7 45 cc 03 00 00 00 	movl   $0x3,-0x34(%ebp)
 8048df3:	c7 45 d4 01 00 00 00 	movl   $0x1,-0x2c(%ebp)
 8048dfa:	c7 45 dc 03 00 00 00 	movl   $0x3,-0x24(%ebp)
 8048e01:	c7 45 e4 03 00 00 00 	movl   $0x3,-0x1c(%ebp)
 8048e08:	c7 45 ec 07 00 00 00 	movl   $0x7,-0x14(%ebp)
 8048e0f:	83 ec 0c             	sub    $0xc,%esp
 8048e12:	68 70 91 04 08       	push   $0x8049170
 8048e17:	e8 b4 f7 ff ff       	call   80485d0 <puts@plt>
 8048e1c:	83 c4 10             	add    $0x10,%esp
 8048e1f:	83 ec 0c             	sub    $0xc,%esp
 8048e22:	68 0c 93 04 08       	push   $0x804930c
 8048e27:	e8 a4 f7 ff ff       	call   80485d0 <puts@plt>
 8048e2c:	83 c4 10             	add    $0x10,%esp
 8048e2f:	83 ec 0c             	sub    $0xc,%esp
 8048e32:	68 70 91 04 08       	push   $0x8049170
 8048e37:	e8 94 f7 ff ff       	call   80485d0 <puts@plt>
 8048e3c:	83 c4 10             	add    $0x10,%esp
 8048e3f:	83 ec 0c             	sub    $0xc,%esp
 8048e42:	68 a5 92 04 08       	push   $0x80492a5
 8048e47:	e8 44 f7 ff ff       	call   8048590 <printf@plt>
 8048e4c:	83 c4 10             	add    $0x10,%esp
 8048e4f:	c7 45 c4 00 00 00 00 	movl   $0x0,-0x3c(%ebp)
 8048e56:	eb 23                	jmp    8048e7b <levelfive+0xa0>
 8048e58:	8d 45 cc             	lea    -0x34(%ebp),%eax
 8048e5b:	8b 55 c4             	mov    -0x3c(%ebp),%edx
 8048e5e:	c1 e2 03             	shl    $0x3,%edx
 8048e61:	01 d0                	add    %edx,%eax
 8048e63:	83 c0 04             	add    $0x4,%eax
 8048e66:	83 ec 08             	sub    $0x8,%esp
 8048e69:	50                   	push   %eax
 8048e6a:	68 51 93 04 08       	push   $0x8049351
 8048e6f:	e8 9c f7 ff ff       	call   8048610 <__isoc99_scanf@plt>
 8048e74:	83 c4 10             	add    $0x10,%esp
 8048e77:	83 45 c4 01          	addl   $0x1,-0x3c(%ebp)
 8048e7b:	83 7d c4 04          	cmpl   $0x4,-0x3c(%ebp)
 8048e7f:	7e d7                	jle    8048e58 <levelfive+0x7d>
 8048e81:	c7 45 c8 00 00 00 00 	movl   $0x0,-0x38(%ebp)
 8048e88:	eb 5a                	jmp    8048ee4 <levelfive+0x109>
 8048e8a:	8b 45 c8             	mov    -0x38(%ebp),%eax
 8048e8d:	d9 44 c5 d0          	flds   -0x30(%ebp,%eax,8)
 8048e91:	83 ec 0c             	sub    $0xc,%esp
 8048e94:	8d 64 24 fc          	lea    -0x4(%esp),%esp
 8048e98:	d9 1c 24             	fstps  (%esp)
 8048e9b:	e8 b6 fe ff ff       	call   8048d56 <ayylmao>
 8048ea0:	83 c4 10             	add    $0x10,%esp
 8048ea3:	83 ec 08             	sub    $0x8,%esp
 8048ea6:	8d 64 24 f8          	lea    -0x8(%esp),%esp
 8048eaa:	dd 1c 24             	fstpl  (%esp)
 8048ead:	e8 be f6 ff ff       	call   8048570 <round@plt>
 8048eb2:	83 c4 10             	add    $0x10,%esp
 8048eb5:	d9 7d b6             	fnstcw -0x4a(%ebp)
 8048eb8:	0f b7 45 b6          	movzwl -0x4a(%ebp),%eax
 8048ebc:	b4 0c                	mov    $0xc,%ah
 8048ebe:	66 89 45 b4          	mov    %ax,-0x4c(%ebp)
 8048ec2:	d9 6d b4             	fldcw  -0x4c(%ebp)
 8048ec5:	db 5d b0             	fistpl -0x50(%ebp)
 8048ec8:	d9 6d b6             	fldcw  -0x4a(%ebp)
 8048ecb:	8b 55 b0             	mov    -0x50(%ebp),%edx
 8048ece:	8b 45 c8             	mov    -0x38(%ebp),%eax
 8048ed1:	8b 44 c5 cc          	mov    -0x34(%ebp,%eax,8),%eax
 8048ed5:	39 c2                	cmp    %eax,%edx
 8048ed7:	74 07                	je     8048ee0 <levelfive+0x105>
 8048ed9:	b8 00 00 00 00       	mov    $0x0,%eax
 8048ede:	eb 0f                	jmp    8048eef <levelfive+0x114>
 8048ee0:	83 45 c8 01          	addl   $0x1,-0x38(%ebp)
 8048ee4:	83 7d c8 04          	cmpl   $0x4,-0x38(%ebp)
 8048ee8:	7e a0                	jle    8048e8a <levelfive+0xaf>
 8048eea:	b8 01 00 00 00       	mov    $0x1,%eax
 8048eef:	8b 4d f4             	mov    -0xc(%ebp),%ecx
 8048ef2:	65 33 0d 14 00 00 00 	xor    %gs:0x14,%ecx
 8048ef9:	74 05                	je     8048f00 <levelfive+0x125>
 8048efb:	e8 c0 f6 ff ff       	call   80485c0 <__stack_chk_fail@plt>
 8048f00:	c9                   	leave  
 8048f01:	c3                   	ret    

08048f02 <main>:
 8048f02:	8d 4c 24 04          	lea    0x4(%esp),%ecx
 8048f06:	83 e4 f0             	and    $0xfffffff0,%esp
 8048f09:	ff 71 fc             	pushl  -0x4(%ecx)
 8048f0c:	55                   	push   %ebp
 8048f0d:	89 e5                	mov    %esp,%ebp
 8048f0f:	51                   	push   %ecx
 8048f10:	83 ec 14             	sub    $0x14,%esp
 8048f13:	65 a1 14 00 00 00    	mov    %gs:0x14,%eax
 8048f19:	89 45 f4             	mov    %eax,-0xc(%ebp)
 8048f1c:	31 c0                	xor    %eax,%eax
 8048f1e:	6a 00                	push   $0x0
 8048f20:	6a 00                	push   $0x0
 8048f22:	6a 00                	push   $0x0
 8048f24:	6a 00                	push   $0x0
 8048f26:	e8 f5 f6 ff ff       	call   8048620 <ptrace@plt>
 8048f2b:	83 c4 10             	add    $0x10,%esp
 8048f2e:	83 f8 ff             	cmp    $0xffffffff,%eax
 8048f31:	75 0a                	jne    8048f3d <main+0x3b>
 8048f33:	83 ec 0c             	sub    $0xc,%esp
 8048f36:	6a 00                	push   $0x0
 8048f38:	e8 a3 f6 ff ff       	call   80485e0 <exit@plt>
 8048f3d:	a1 60 b0 04 08       	mov    0x804b060,%eax
 8048f42:	6a 00                	push   $0x0
 8048f44:	6a 02                	push   $0x2
 8048f46:	6a 00                	push   $0x0
 8048f48:	50                   	push   %eax
 8048f49:	e8 b2 f6 ff ff       	call   8048600 <setvbuf@plt>
 8048f4e:	83 c4 10             	add    $0x10,%esp
 8048f51:	a1 64 b0 04 08       	mov    0x804b064,%eax
 8048f56:	6a 00                	push   $0x0
 8048f58:	6a 02                	push   $0x2
 8048f5a:	6a 00                	push   $0x0
 8048f5c:	50                   	push   %eax
 8048f5d:	e8 9e f6 ff ff       	call   8048600 <setvbuf@plt>
 8048f62:	83 c4 10             	add    $0x10,%esp
 8048f65:	83 ec 0c             	sub    $0xc,%esp
 8048f68:	68 54 93 04 08       	push   $0x8049354
 8048f6d:	e8 5e f6 ff ff       	call   80485d0 <puts@plt>
 8048f72:	83 c4 10             	add    $0x10,%esp
 8048f75:	83 ec 0c             	sub    $0xc,%esp
 8048f78:	68 a4 93 04 08       	push   $0x80493a4
 8048f7d:	e8 4e f6 ff ff       	call   80485d0 <puts@plt>
 8048f82:	83 c4 10             	add    $0x10,%esp
 8048f85:	83 ec 0c             	sub    $0xc,%esp
 8048f88:	68 04 94 04 08       	push   $0x8049404
 8048f8d:	e8 3e f6 ff ff       	call   80485d0 <puts@plt>
 8048f92:	83 c4 10             	add    $0x10,%esp
 8048f95:	83 ec 0c             	sub    $0xc,%esp
 8048f98:	68 64 94 04 08       	push   $0x8049464
 8048f9d:	e8 2e f6 ff ff       	call   80485d0 <puts@plt>
 8048fa2:	83 c4 10             	add    $0x10,%esp
 8048fa5:	83 ec 0c             	sub    $0xc,%esp
 8048fa8:	68 c4 94 04 08       	push   $0x80494c4
 8048fad:	e8 1e f6 ff ff       	call   80485d0 <puts@plt>
 8048fb2:	83 c4 10             	add    $0x10,%esp
 8048fb5:	83 ec 0c             	sub    $0xc,%esp
 8048fb8:	68 24 95 04 08       	push   $0x8049524
 8048fbd:	e8 0e f6 ff ff       	call   80485d0 <puts@plt>
 8048fc2:	83 c4 10             	add    $0x10,%esp
 8048fc5:	83 ec 0c             	sub    $0xc,%esp
 8048fc8:	68 84 95 04 08       	push   $0x8049584
 8048fcd:	e8 fe f5 ff ff       	call   80485d0 <puts@plt>
 8048fd2:	83 c4 10             	add    $0x10,%esp
 8048fd5:	83 ec 0c             	sub    $0xc,%esp
 8048fd8:	68 d8 95 04 08       	push   $0x80495d8
 8048fdd:	e8 ee f5 ff ff       	call   80485d0 <puts@plt>
 8048fe2:	83 c4 10             	add    $0x10,%esp
 8048fe5:	83 ec 0c             	sub    $0xc,%esp
 8048fe8:	68 84 95 04 08       	push   $0x8049584
 8048fed:	e8 de f5 ff ff       	call   80485d0 <puts@plt>
 8048ff2:	83 c4 10             	add    $0x10,%esp
 8048ff5:	83 ec 0c             	sub    $0xc,%esp
 8048ff8:	68 30 96 04 08       	push   $0x8049630
 8048ffd:	e8 ce f5 ff ff       	call   80485d0 <puts@plt>
 8049002:	83 c4 10             	add    $0x10,%esp
 8049005:	83 ec 0c             	sub    $0xc,%esp
 8049008:	68 8c 96 04 08       	push   $0x804968c
 804900d:	e8 be f5 ff ff       	call   80485d0 <puts@plt>
 8049012:	83 c4 10             	add    $0x10,%esp
 8049015:	e8 21 f7 ff ff       	call   804873b <levelone>
 804901a:	84 c0                	test   %al,%al
 804901c:	74 1b                	je     8049039 <main+0x137>
 804901e:	83 ec 0c             	sub    $0xc,%esp
 8049021:	68 da 96 04 08       	push   $0x80496da
 8049026:	e8 a5 f5 ff ff       	call   80485d0 <puts@plt>
 804902b:	83 c4 10             	add    $0x10,%esp
 804902e:	e8 ed f7 ff ff       	call   8048820 <leveltwo>
 8049033:	84 c0                	test   %al,%al
 8049035:	74 27                	je     804905e <main+0x15c>
 8049037:	eb 0a                	jmp    8049043 <main+0x141>
 8049039:	83 ec 0c             	sub    $0xc,%esp
 804903c:	6a 00                	push   $0x0
 804903e:	e8 9d f5 ff ff       	call   80485e0 <exit@plt>
 8049043:	83 ec 0c             	sub    $0xc,%esp
 8049046:	68 da 96 04 08       	push   $0x80496da
 804904b:	e8 80 f5 ff ff       	call   80485d0 <puts@plt>
 8049050:	83 c4 10             	add    $0x10,%esp
 8049053:	e8 11 f9 ff ff       	call   8048969 <levelthree>
 8049058:	84 c0                	test   %al,%al
 804905a:	74 27                	je     8049083 <main+0x181>
 804905c:	eb 0a                	jmp    8049068 <main+0x166>
 804905e:	83 ec 0c             	sub    $0xc,%esp
 8049061:	6a 00                	push   $0x0
 8049063:	e8 78 f5 ff ff       	call   80485e0 <exit@plt>
 8049068:	83 ec 0c             	sub    $0xc,%esp
 804906b:	68 da 96 04 08       	push   $0x80496da
 8049070:	e8 5b f5 ff ff       	call   80485d0 <puts@plt>
 8049075:	83 c4 10             	add    $0x10,%esp
 8049078:	e8 3c fc ff ff       	call   8048cb9 <levelfour>
 804907d:	84 c0                	test   %al,%al
 804907f:	74 27                	je     80490a8 <main+0x1a6>
 8049081:	eb 0a                	jmp    804908d <main+0x18b>
 8049083:	83 ec 0c             	sub    $0xc,%esp
 8049086:	6a 00                	push   $0x0
 8049088:	e8 53 f5 ff ff       	call   80485e0 <exit@plt>
 804908d:	83 ec 0c             	sub    $0xc,%esp
 8049090:	68 da 96 04 08       	push   $0x80496da
 8049095:	e8 36 f5 ff ff       	call   80485d0 <puts@plt>
 804909a:	83 c4 10             	add    $0x10,%esp
 804909d:	e8 39 fd ff ff       	call   8048ddb <levelfive>
 80490a2:	84 c0                	test   %al,%al
 80490a4:	74 2f                	je     80490d5 <main+0x1d3>
 80490a6:	eb 0a                	jmp    80490b2 <main+0x1b0>
 80490a8:	83 ec 0c             	sub    $0xc,%esp
 80490ab:	6a 00                	push   $0x0
 80490ad:	e8 2e f5 ff ff       	call   80485e0 <exit@plt>
 80490b2:	83 ec 0c             	sub    $0xc,%esp
 80490b5:	68 da 96 04 08       	push   $0x80496da
 80490ba:	e8 11 f5 ff ff       	call   80485d0 <puts@plt>
 80490bf:	83 c4 10             	add    $0x10,%esp
 80490c2:	b8 00 00 00 00       	mov    $0x0,%eax
 80490c7:	8b 55 f4             	mov    -0xc(%ebp),%edx
 80490ca:	65 33 15 14 00 00 00 	xor    %gs:0x14,%edx
 80490d1:	74 11                	je     80490e4 <main+0x1e2>
 80490d3:	eb 0a                	jmp    80490df <main+0x1dd>
 80490d5:	83 ec 0c             	sub    $0xc,%esp
 80490d8:	6a 00                	push   $0x0
 80490da:	e8 01 f5 ff ff       	call   80485e0 <exit@plt>
 80490df:	e8 dc f4 ff ff       	call   80485c0 <__stack_chk_fail@plt>
 80490e4:	8b 4d fc             	mov    -0x4(%ebp),%ecx
 80490e7:	c9                   	leave  
 80490e8:	8d 61 fc             	lea    -0x4(%ecx),%esp
 80490eb:	c3                   	ret    
 80490ec:	66 90                	xchg   %ax,%ax
 80490ee:	66 90                	xchg   %ax,%ax

080490f0 <__libc_csu_init>:
 80490f0:	55                   	push   %ebp
 80490f1:	57                   	push   %edi
 80490f2:	56                   	push   %esi
 80490f3:	53                   	push   %ebx
 80490f4:	e8 77 f5 ff ff       	call   8048670 <__x86.get_pc_thunk.bx>
 80490f9:	81 c3 07 1f 00 00    	add    $0x1f07,%ebx
 80490ff:	83 ec 0c             	sub    $0xc,%esp
 8049102:	8b 6c 24 20          	mov    0x20(%esp),%ebp
 8049106:	8d b3 04 ff ff ff    	lea    -0xfc(%ebx),%esi
 804910c:	e8 27 f4 ff ff       	call   8048538 <_init>
 8049111:	8d 83 00 ff ff ff    	lea    -0x100(%ebx),%eax
 8049117:	29 c6                	sub    %eax,%esi
 8049119:	c1 fe 02             	sar    $0x2,%esi
 804911c:	85 f6                	test   %esi,%esi
 804911e:	74 25                	je     8049145 <__libc_csu_init+0x55>
 8049120:	31 ff                	xor    %edi,%edi
 8049122:	8d b6 00 00 00 00    	lea    0x0(%esi),%esi
 8049128:	83 ec 04             	sub    $0x4,%esp
 804912b:	ff 74 24 2c          	pushl  0x2c(%esp)
 804912f:	ff 74 24 2c          	pushl  0x2c(%esp)
 8049133:	55                   	push   %ebp
 8049134:	ff 94 bb 00 ff ff ff 	call   *-0x100(%ebx,%edi,4)
 804913b:	83 c7 01             	add    $0x1,%edi
 804913e:	83 c4 10             	add    $0x10,%esp
 8049141:	39 f7                	cmp    %esi,%edi
 8049143:	75 e3                	jne    8049128 <__libc_csu_init+0x38>
 8049145:	83 c4 0c             	add    $0xc,%esp
 8049148:	5b                   	pop    %ebx
 8049149:	5e                   	pop    %esi
 804914a:	5f                   	pop    %edi
 804914b:	5d                   	pop    %ebp
 804914c:	c3                   	ret    
 804914d:	8d 76 00             	lea    0x0(%esi),%esi

08049150 <__libc_csu_fini>:
 8049150:	f3 c3                	repz ret 

Disassembly of section .fini:

08049154 <_fini>:
 8049154:	53                   	push   %ebx
 8049155:	83 ec 08             	sub    $0x8,%esp
 8049158:	e8 13 f5 ff ff       	call   8048670 <__x86.get_pc_thunk.bx>
 804915d:	81 c3 a3 1e 00 00    	add    $0x1ea3,%ebx
 8049163:	83 c4 08             	add    $0x8,%esp
 8049166:	5b                   	pop    %ebx
 8049167:	c3                   	ret    

Disassembly of section .init:

08048538 <_init>:
 8048538:	53                   	push   %ebx
 8048539:	83 ec 08             	sub    $0x8,%esp
 804853c:	e8 2f 01 00 00       	call   8048670 <__x86.get_pc_thunk.bx>
 8048541:	81 c3 bf 2a 00 00    	add    $0x2abf,%ebx
 8048547:	8b 83 fc ff ff ff    	mov    -0x4(%ebx),%eax
 804854d:	85 c0                	test   %eax,%eax
 804854f:	74 05                	je     8048556 <_init+0x1e>
 8048551:	e8 da 00 00 00       	call   8048630 <.plt.got>
 8048556:	83 c4 08             	add    $0x8,%esp
 8048559:	5b                   	pop    %ebx
 804855a:	c3                   	ret    

Disassembly of section .plt:

08048560 <.plt>:
 8048560:	ff 35 04 b0 04 08    	pushl  0x804b004
 8048566:	ff 25 08 b0 04 08    	jmp    *0x804b008
 804856c:	00 00                	add    %al,(%eax)
	...

08048570 <round@plt>:
 8048570:	ff 25 0c b0 04 08    	jmp    *0x804b00c
 8048576:	68 00 00 00 00       	push   $0x0
 804857b:	e9 e0 ff ff ff       	jmp    8048560 <.plt>

08048580 <strcmp@plt>:
 8048580:	ff 25 10 b0 04 08    	jmp    *0x804b010
 8048586:	68 08 00 00 00       	push   $0x8
 804858b:	e9 d0 ff ff ff       	jmp    8048560 <.plt>

08048590 <printf@plt>:
 8048590:	ff 25 14 b0 04 08    	jmp    *0x804b014
 8048596:	68 10 00 00 00       	push   $0x10
 804859b:	e9 c0 ff ff ff       	jmp    8048560 <.plt>

080485a0 <strcspn@plt>:
 80485a0:	ff 25 18 b0 04 08    	jmp    *0x804b018
 80485a6:	68 18 00 00 00       	push   $0x18
 80485ab:	e9 b0 ff ff ff       	jmp    8048560 <.plt>

080485b0 <fgets@plt>:
 80485b0:	ff 25 1c b0 04 08    	jmp    *0x804b01c
 80485b6:	68 20 00 00 00       	push   $0x20
 80485bb:	e9 a0 ff ff ff       	jmp    8048560 <.plt>

080485c0 <__stack_chk_fail@plt>:
 80485c0:	ff 25 20 b0 04 08    	jmp    *0x804b020
 80485c6:	68 28 00 00 00       	push   $0x28
 80485cb:	e9 90 ff ff ff       	jmp    8048560 <.plt>

080485d0 <puts@plt>:
 80485d0:	ff 25 24 b0 04 08    	jmp    *0x804b024
 80485d6:	68 30 00 00 00       	push   $0x30
 80485db:	e9 80 ff ff ff       	jmp    8048560 <.plt>

080485e0 <exit@plt>:
 80485e0:	ff 25 28 b0 04 08    	jmp    *0x804b028
 80485e6:	68 38 00 00 00       	push   $0x38
 80485eb:	e9 70 ff ff ff       	jmp    8048560 <.plt>

080485f0 <__libc_start_main@plt>:
 80485f0:	ff 25 2c b0 04 08    	jmp    *0x804b02c
 80485f6:	68 40 00 00 00       	push   $0x40
 80485fb:	e9 60 ff ff ff       	jmp    8048560 <.plt>

08048600 <setvbuf@plt>:
 8048600:	ff 25 30 b0 04 08    	jmp    *0x804b030
 8048606:	68 48 00 00 00       	push   $0x48
 804860b:	e9 50 ff ff ff       	jmp    8048560 <.plt>

08048610 <__isoc99_scanf@plt>:
 8048610:	ff 25 34 b0 04 08    	jmp    *0x804b034
 8048616:	68 50 00 00 00       	push   $0x50
 804861b:	e9 40 ff ff ff       	jmp    8048560 <.plt>

08048620 <ptrace@plt>:
 8048620:	ff 25 38 b0 04 08    	jmp    *0x804b038
 8048626:	68 58 00 00 00       	push   $0x58
 804862b:	e9 30 ff ff ff       	jmp    8048560 <.plt>

Disassembly of section .plt.got:

08048630 <.plt.got>:
 8048630:	ff 25 fc af 04 08    	jmp    *0x804affc
 8048636:	66 90                	xchg   %ax,%ax

Disassembly of section .text:

08048640 <_start>:
 8048640:	31 ed                	xor    %ebp,%ebp
 8048642:	5e                   	pop    %esi
 8048643:	89 e1                	mov    %esp,%ecx
 8048645:	83 e4 f0             	and    $0xfffffff0,%esp
 8048648:	50                   	push   %eax
 8048649:	54                   	push   %esp
 804864a:	52                   	push   %edx
 804864b:	68 50 91 04 08       	push   $0x8049150
 8048650:	68 f0 90 04 08       	push   $0x80490f0
 8048655:	51                   	push   %ecx
 8048656:	56                   	push   %esi
 8048657:	68 02 8f 04 08       	push   $0x8048f02
 804865c:	e8 8f ff ff ff       	call   80485f0 <__libc_start_main@plt>
 8048661:	f4                   	hlt    
 8048662:	66 90                	xchg   %ax,%ax
 8048664:	66 90                	xchg   %ax,%ax
 8048666:	66 90                	xchg   %ax,%ax
 8048668:	66 90                	xchg   %ax,%ax
 804866a:	66 90                	xchg   %ax,%ax
 804866c:	66 90                	xchg   %ax,%ax
 804866e:	66 90                	xchg   %ax,%ax

08048670 <__x86.get_pc_thunk.bx>:
 8048670:	8b 1c 24             	mov    (%esp),%ebx
 8048673:	c3                   	ret    
 8048674:	66 90                	xchg   %ax,%ax
 8048676:	66 90                	xchg   %ax,%ax
 8048678:	66 90                	xchg   %ax,%ax
 804867a:	66 90                	xchg   %ax,%ax
 804867c:	66 90                	xchg   %ax,%ax
 804867e:	66 90                	xchg   %ax,%ax

08048680 <deregister_tm_clones>:
 8048680:	b8 47 b0 04 08       	mov    $0x804b047,%eax
 8048685:	2d 44 b0 04 08       	sub    $0x804b044,%eax
 804868a:	83 f8 06             	cmp    $0x6,%eax
 804868d:	76 1a                	jbe    80486a9 <deregister_tm_clones+0x29>
 804868f:	b8 00 00 00 00       	mov    $0x0,%eax
 8048694:	85 c0                	test   %eax,%eax
 8048696:	74 11                	je     80486a9 <deregister_tm_clones+0x29>
 8048698:	55                   	push   %ebp
 8048699:	89 e5                	mov    %esp,%ebp
 804869b:	83 ec 14             	sub    $0x14,%esp
 804869e:	68 44 b0 04 08       	push   $0x804b044
 80486a3:	ff d0                	call   *%eax
 80486a5:	83 c4 10             	add    $0x10,%esp
 80486a8:	c9                   	leave  
 80486a9:	f3 c3                	repz ret 
 80486ab:	90                   	nop
 80486ac:	8d 74 26 00          	lea    0x0(%esi,%eiz,1),%esi

080486b0 <register_tm_clones>:
 80486b0:	b8 44 b0 04 08       	mov    $0x804b044,%eax
 80486b5:	2d 44 b0 04 08       	sub    $0x804b044,%eax
 80486ba:	c1 f8 02             	sar    $0x2,%eax
 80486bd:	89 c2                	mov    %eax,%edx
 80486bf:	c1 ea 1f             	shr    $0x1f,%edx
 80486c2:	01 d0                	add    %edx,%eax
 80486c4:	d1 f8                	sar    %eax
 80486c6:	74 1b                	je     80486e3 <register_tm_clones+0x33>
 80486c8:	ba 00 00 00 00       	mov    $0x0,%edx
 80486cd:	85 d2                	test   %edx,%edx
 80486cf:	74 12                	je     80486e3 <register_tm_clones+0x33>
 80486d1:	55                   	push   %ebp
 80486d2:	89 e5                	mov    %esp,%ebp
 80486d4:	83 ec 10             	sub    $0x10,%esp
 80486d7:	50                   	push   %eax
 80486d8:	68 44 b0 04 08       	push   $0x804b044
 80486dd:	ff d2                	call   *%edx
 80486df:	83 c4 10             	add    $0x10,%esp
 80486e2:	c9                   	leave  
 80486e3:	f3 c3                	repz ret 
 80486e5:	8d 74 26 00          	lea    0x0(%esi,%eiz,1),%esi
 80486e9:	8d bc 27 00 00 00 00 	lea    0x0(%edi,%eiz,1),%edi

080486f0 <__do_global_dtors_aux>:
 80486f0:	80 3d 68 b0 04 08 00 	cmpb   $0x0,0x804b068
 80486f7:	75 13                	jne    804870c <__do_global_dtors_aux+0x1c>
 80486f9:	55                   	push   %ebp
 80486fa:	89 e5                	mov    %esp,%ebp
 80486fc:	83 ec 08             	sub    $0x8,%esp
 80486ff:	e8 7c ff ff ff       	call   8048680 <deregister_tm_clones>
 8048704:	c6 05 68 b0 04 08 01 	movb   $0x1,0x804b068
 804870b:	c9                   	leave  
 804870c:	f3 c3                	repz ret 
 804870e:	66 90                	xchg   %ax,%ax

08048710 <frame_dummy>:
 8048710:	b8 08 af 04 08       	mov    $0x804af08,%eax
 8048715:	8b 10                	mov    (%eax),%edx
 8048717:	85 d2                	test   %edx,%edx
 8048719:	75 05                	jne    8048720 <frame_dummy+0x10>
 804871b:	eb 93                	jmp    80486b0 <register_tm_clones>
 804871d:	8d 76 00             	lea    0x0(%esi),%esi
 8048720:	ba 00 00 00 00       	mov    $0x0,%edx
 8048725:	85 d2                	test   %edx,%edx
 8048727:	74 f2                	je     804871b <frame_dummy+0xb>
 8048729:	55                   	push   %ebp
 804872a:	89 e5                	mov    %esp,%ebp
 804872c:	83 ec 14             	sub    $0x14,%esp
 804872f:	50                   	push   %eax
 8048730:	ff d2                	call   *%edx
 8048732:	83 c4 10             	add    $0x10,%esp
 8048735:	c9                   	leave  
 8048736:	e9 75 ff ff ff       	jmp    80486b0 <register_tm_clones>

0804873b <levelone>:
 804873b:	55                   	push   %ebp
 804873c:	89 e5                	mov    %esp,%ebp
 804873e:	83 ec 48             	sub    $0x48,%esp
 8048741:	65 a1 14 00 00 00    	mov    %gs:0x14,%eax
 8048747:	89 45 f4             	mov    %eax,-0xc(%ebp)
 804874a:	31 c0                	xor    %eax,%eax
 804874c:	c7 45 bb 49 20 77 40 	movl   $0x40772049,-0x45(%ebp)
 8048753:	c7 45 bf 6e 6e 40 20 	movl   $0x20406e6e,-0x41(%ebp)
 804875a:	c7 45 c3 62 65 20 74 	movl   $0x74206562,-0x3d(%ebp)
 8048761:	c7 45 c7 68 65 20 76 	movl   $0x76206568,-0x39(%ebp)
 8048768:	c7 45 cb 65 72 79 20 	movl   $0x20797265,-0x35(%ebp)
 804876f:	c7 45 cf 62 65 73 74 	movl   $0x74736562,-0x31(%ebp)
 8048776:	c6 45 d3 00          	movb   $0x0,-0x2d(%ebp)
 804877a:	83 ec 0c             	sub    $0xc,%esp
 804877d:	68 70 91 04 08       	push   $0x8049170
 8048782:	e8 49 fe ff ff       	call   80485d0 <puts@plt>
 8048787:	83 c4 10             	add    $0x10,%esp
 804878a:	83 ec 0c             	sub    $0xc,%esp
 804878d:	68 b8 91 04 08       	push   $0x80491b8
 8048792:	e8 39 fe ff ff       	call   80485d0 <puts@plt>
 8048797:	83 c4 10             	add    $0x10,%esp
 804879a:	83 ec 0c             	sub    $0xc,%esp
 804879d:	68 70 91 04 08       	push   $0x8049170
 80487a2:	e8 29 fe ff ff       	call   80485d0 <puts@plt>
 80487a7:	83 c4 10             	add    $0x10,%esp
 80487aa:	83 ec 0c             	sub    $0xc,%esp
 80487ad:	68 fd 91 04 08       	push   $0x80491fd
 80487b2:	e8 d9 fd ff ff       	call   8048590 <printf@plt>
 80487b7:	83 c4 10             	add    $0x10,%esp
 80487ba:	a1 60 b0 04 08       	mov    0x804b060,%eax
 80487bf:	83 ec 04             	sub    $0x4,%esp
 80487c2:	50                   	push   %eax
 80487c3:	6a 20                	push   $0x20
 80487c5:	8d 45 d4             	lea    -0x2c(%ebp),%eax
 80487c8:	50                   	push   %eax
 80487c9:	e8 e2 fd ff ff       	call   80485b0 <fgets@plt>
 80487ce:	83 c4 10             	add    $0x10,%esp
 80487d1:	83 ec 08             	sub    $0x8,%esp
 80487d4:	68 0a 92 04 08       	push   $0x804920a
 80487d9:	8d 45 d4             	lea    -0x2c(%ebp),%eax
 80487dc:	50                   	push   %eax
 80487dd:	e8 be fd ff ff       	call   80485a0 <strcspn@plt>
 80487e2:	83 c4 10             	add    $0x10,%esp
 80487e5:	c6 44 05 d4 00       	movb   $0x0,-0x2c(%ebp,%eax,1)
 80487ea:	83 ec 08             	sub    $0x8,%esp
 80487ed:	8d 45 d4             	lea    -0x2c(%ebp),%eax
 80487f0:	50                   	push   %eax
 80487f1:	8d 45 bb             	lea    -0x45(%ebp),%eax
 80487f4:	50                   	push   %eax
 80487f5:	e8 86 fd ff ff       	call   8048580 <strcmp@plt>
 80487fa:	83 c4 10             	add    $0x10,%esp
 80487fd:	85 c0                	test   %eax,%eax
 80487ff:	75 07                	jne    8048808 <levelone+0xcd>
 8048801:	b8 01 00 00 00       	mov    $0x1,%eax
 8048806:	eb 05                	jmp    804880d <levelone+0xd2>
 8048808:	b8 00 00 00 00       	mov    $0x0,%eax
 804880d:	8b 55 f4             	mov    -0xc(%ebp),%edx
 8048810:	65 33 15 14 00 00 00 	xor    %gs:0x14,%edx
 8048817:	74 05                	je     804881e <levelone+0xe3>
 8048819:	e8 a2 fd ff ff       	call   80485c0 <__stack_chk_fail@plt>
 804881e:	c9                   	leave  
 804881f:	c3                   	ret    

08048820 <leveltwo>:
 8048820:	55                   	push   %ebp
 8048821:	89 e5                	mov    %esp,%ebp
 8048823:	83 ec 38             	sub    $0x38,%esp
 8048826:	65 a1 14 00 00 00    	mov    %gs:0x14,%eax
 804882c:	89 45 f4             	mov    %eax,-0xc(%ebp)
 804882f:	31 c0                	xor    %eax,%eax
 8048831:	83 ec 0c             	sub    $0xc,%esp
 8048834:	68 70 91 04 08       	push   $0x8049170
 8048839:	e8 92 fd ff ff       	call   80485d0 <puts@plt>
 804883e:	83 c4 10             	add    $0x10,%esp
 8048841:	83 ec 0c             	sub    $0xc,%esp
 8048844:	68 0c 92 04 08       	push   $0x804920c
 8048849:	e8 82 fd ff ff       	call   80485d0 <puts@plt>
 804884e:	83 c4 10             	add    $0x10,%esp
 8048851:	83 ec 0c             	sub    $0xc,%esp
 8048854:	68 70 91 04 08       	push   $0x8049170
 8048859:	e8 72 fd ff ff       	call   80485d0 <puts@plt>
 804885e:	83 c4 10             	add    $0x10,%esp
 8048861:	83 ec 0c             	sub    $0xc,%esp
 8048864:	68 fd 91 04 08       	push   $0x80491fd
 8048869:	e8 22 fd ff ff       	call   8048590 <printf@plt>
 804886e:	83 c4 10             	add    $0x10,%esp
 8048871:	83 ec 08             	sub    $0x8,%esp
 8048874:	8d 45 e0             	lea    -0x20(%ebp),%eax
 8048877:	83 c0 14             	add    $0x14,%eax
 804887a:	50                   	push   %eax
 804887b:	8d 45 e0             	lea    -0x20(%ebp),%eax
 804887e:	83 c0 10             	add    $0x10,%eax
 8048881:	50                   	push   %eax
 8048882:	8d 45 e0             	lea    -0x20(%ebp),%eax
 8048885:	83 c0 0c             	add    $0xc,%eax
 8048888:	50                   	push   %eax
 8048889:	8d 45 e0             	lea    -0x20(%ebp),%eax
 804888c:	83 c0 08             	add    $0x8,%eax
 804888f:	50                   	push   %eax
 8048890:	8d 45 e0             	lea    -0x20(%ebp),%eax
 8048893:	83 c0 04             	add    $0x4,%eax
 8048896:	50                   	push   %eax
 8048897:	68 51 92 04 08       	push   $0x8049251
 804889c:	e8 6f fd ff ff       	call   8048610 <__isoc99_scanf@plt>
 80488a1:	83 c4 20             	add    $0x20,%esp
 80488a4:	c7 45 e0 01 00 00 00 	movl   $0x1,-0x20(%ebp)
 80488ab:	c7 45 d4 07 00 00 00 	movl   $0x7,-0x2c(%ebp)
 80488b2:	c7 45 d8 0a 00 00 00 	movl   $0xa,-0x28(%ebp)
 80488b9:	c7 45 dc 01 00 00 00 	movl   $0x1,-0x24(%ebp)
 80488c0:	eb 37                	jmp    80488f9 <leveltwo+0xd9>
 80488c2:	8b 45 dc             	mov    -0x24(%ebp),%eax
 80488c5:	8b 54 85 e0          	mov    -0x20(%ebp,%eax,4),%edx
 80488c9:	8b 45 dc             	mov    -0x24(%ebp),%eax
 80488cc:	83 e8 01             	sub    $0x1,%eax
 80488cf:	8b 44 85 e0          	mov    -0x20(%ebp,%eax,4),%eax
 80488d3:	0f af 45 d4          	imul   -0x2c(%ebp),%eax
 80488d7:	89 c1                	mov    %eax,%ecx
 80488d9:	8b 45 d8             	mov    -0x28(%ebp),%eax
 80488dc:	01 c8                	add    %ecx,%eax
 80488de:	39 c2                	cmp    %eax,%edx
 80488e0:	74 07                	je     80488e9 <leveltwo+0xc9>
 80488e2:	b8 00 00 00 00       	mov    $0x0,%eax
 80488e7:	eb 1d                	jmp    8048906 <leveltwo+0xe6>
 80488e9:	83 45 dc 01          	addl   $0x1,-0x24(%ebp)
 80488ed:	8b 45 d4             	mov    -0x2c(%ebp),%eax
 80488f0:	31 45 d8             	xor    %eax,-0x28(%ebp)
 80488f3:	8b 45 d8             	mov    -0x28(%ebp),%eax
 80488f6:	31 45 d4             	xor    %eax,-0x2c(%ebp)
 80488f9:	8b 45 dc             	mov    -0x24(%ebp),%eax
 80488fc:	83 f8 04             	cmp    $0x4,%eax
 80488ff:	76 c1                	jbe    80488c2 <leveltwo+0xa2>
 8048901:	b8 01 00 00 00       	mov    $0x1,%eax
 8048906:	8b 55 f4             	mov    -0xc(%ebp),%edx
 8048909:	65 33 15 14 00 00 00 	xor    %gs:0x14,%edx
 8048910:	74 05                	je     8048917 <leveltwo+0xf7>
 8048912:	e8 a9 fc ff ff       	call   80485c0 <__stack_chk_fail@plt>
 8048917:	c9                   	leave  
 8048918:	c3                   	ret    

08048919 <magic>:
 8048919:	55                   	push   %ebp
 804891a:	89 e5                	mov    %esp,%ebp
 804891c:	83 ec 28             	sub    $0x28,%esp
 804891f:	8b 45 08             	mov    0x8(%ebp),%eax
 8048922:	88 45 e4             	mov    %al,-0x1c(%ebp)
 8048925:	65 a1 14 00 00 00    	mov    %gs:0x14,%eax
 804892b:	89 45 f4             	mov    %eax,-0xc(%ebp)
 804892e:	31 c0                	xor    %eax,%eax
 8048930:	c7 45 f0 00 00 00 00 	movl   $0x0,-0x10(%ebp)
 8048937:	c7 45 f0 00 00 00 00 	movl   $0x0,-0x10(%ebp)
 804893e:	eb 0d                	jmp    804894d <magic+0x34>
 8048940:	0f be 45 e4          	movsbl -0x1c(%ebp),%eax
 8048944:	83 e0 01             	and    $0x1,%eax
 8048947:	01 45 f0             	add    %eax,-0x10(%ebp)
 804894a:	d0 7d e4             	sarb   -0x1c(%ebp)
 804894d:	80 7d e4 00          	cmpb   $0x0,-0x1c(%ebp)
 8048951:	75 ed                	jne    8048940 <magic+0x27>
 8048953:	8b 45 f0             	mov    -0x10(%ebp),%eax
 8048956:	8b 55 f4             	mov    -0xc(%ebp),%edx
 8048959:	65 33 15 14 00 00 00 	xor    %gs:0x14,%edx
 8048960:	74 05                	je     8048967 <magic+0x4e>
 8048962:	e8 59 fc ff ff       	call   80485c0 <__stack_chk_fail@plt>
 8048967:	c9                   	leave  
 8048968:	c3                   	ret    

08048969 <levelthree>:
 8048969:	55                   	push   %ebp
 804896a:	89 e5                	mov    %esp,%ebp
 804896c:	83 ec 18             	sub    $0x18,%esp
 804896f:	65 a1 14 00 00 00    	mov    %gs:0x14,%eax
 8048975:	89 45 f4             	mov    %eax,-0xc(%ebp)
 8048978:	31 c0                	xor    %eax,%eax
 804897a:	83 ec 0c             	sub    $0xc,%esp
 804897d:	68 70 91 04 08       	push   $0x8049170
 8048982:	e8 49 fc ff ff       	call   80485d0 <puts@plt>
 8048987:	83 c4 10             	add    $0x10,%esp
 804898a:	83 ec 0c             	sub    $0xc,%esp
 804898d:	68 60 92 04 08       	push   $0x8049260
 8048992:	e8 39 fc ff ff       	call   80485d0 <puts@plt>
 8048997:	83 c4 10             	add    $0x10,%esp
 804899a:	83 ec 0c             	sub    $0xc,%esp
 804899d:	68 70 91 04 08       	push   $0x8049170
 80489a2:	e8 29 fc ff ff       	call   80485d0 <puts@plt>
 80489a7:	83 c4 10             	add    $0x10,%esp
 80489aa:	83 ec 0c             	sub    $0xc,%esp
 80489ad:	68 a5 92 04 08       	push   $0x80492a5
 80489b2:	e8 d9 fb ff ff       	call   8048590 <printf@plt>
 80489b7:	83 c4 10             	add    $0x10,%esp
 80489ba:	83 ec 08             	sub    $0x8,%esp
 80489bd:	8d 45 f3             	lea    -0xd(%ebp),%eax
 80489c0:	50                   	push   %eax
 80489c1:	8d 45 f2             	lea    -0xe(%ebp),%eax
 80489c4:	50                   	push   %eax
 80489c5:	8d 45 f1             	lea    -0xf(%ebp),%eax
 80489c8:	50                   	push   %eax
 80489c9:	8d 45 f0             	lea    -0x10(%ebp),%eax
 80489cc:	50                   	push   %eax
 80489cd:	8d 45 ef             	lea    -0x11(%ebp),%eax
 80489d0:	50                   	push   %eax
 80489d1:	68 b2 92 04 08       	push   $0x80492b2
 80489d6:	e8 35 fc ff ff       	call   8048610 <__isoc99_scanf@plt>
 80489db:	83 c4 20             	add    $0x20,%esp
 80489de:	0f b6 45 ef          	movzbl -0x11(%ebp),%eax
 80489e2:	0f be c0             	movsbl %al,%eax
 80489e5:	83 ec 0c             	sub    $0xc,%esp
 80489e8:	50                   	push   %eax
 80489e9:	e8 2b ff ff ff       	call   8048919 <magic>
 80489ee:	83 c4 10             	add    $0x10,%esp
 80489f1:	83 f8 03             	cmp    $0x3,%eax
 80489f4:	0f 84 b5 00 00 00    	je     8048aaf <levelthree+0x146>
 80489fa:	83 f8 03             	cmp    $0x3,%eax
 80489fd:	7f 07                	jg     8048a06 <levelthree+0x9d>
 80489ff:	83 f8 02             	cmp    $0x2,%eax
 8048a02:	74 1e                	je     8048a22 <levelthree+0xb9>
 8048a04:	eb 12                	jmp    8048a18 <levelthree+0xaf>
 8048a06:	83 f8 04             	cmp    $0x4,%eax
 8048a09:	0f 84 29 01 00 00    	je     8048b38 <levelthree+0x1cf>
 8048a0f:	83 f8 05             	cmp    $0x5,%eax
 8048a12:	0f 84 a9 01 00 00    	je     8048bc1 <levelthree+0x258>
 8048a18:	b8 00 00 00 00       	mov    $0x0,%eax
 8048a1d:	e9 21 02 00 00       	jmp    8048c43 <levelthree+0x2da>
 8048a22:	90                   	nop
 8048a23:	eb 04                	jmp    8048a29 <levelthree+0xc0>
 8048a25:	90                   	nop
 8048a26:	eb 01                	jmp    8048a29 <levelthree+0xc0>
 8048a28:	90                   	nop
 8048a29:	0f b6 45 f0          	movzbl -0x10(%ebp),%eax
 8048a2d:	0f be c0             	movsbl %al,%eax
 8048a30:	83 ec 0c             	sub    $0xc,%esp
 8048a33:	50                   	push   %eax
 8048a34:	e8 e0 fe ff ff       	call   8048919 <magic>
 8048a39:	83 c4 10             	add    $0x10,%esp
 8048a3c:	83 f8 01             	cmp    $0x1,%eax
 8048a3f:	75 64                	jne    8048aa5 <levelthree+0x13c>
 8048a41:	0f b6 45 f1          	movzbl -0xf(%ebp),%eax
 8048a45:	0f be c0             	movsbl %al,%eax
 8048a48:	83 ec 0c             	sub    $0xc,%esp
 8048a4b:	50                   	push   %eax
 8048a4c:	e8 c8 fe ff ff       	call   8048919 <magic>
 8048a51:	83 c4 10             	add    $0x10,%esp
 8048a54:	83 f8 03             	cmp    $0x3,%eax
 8048a57:	0f 85 67 01 00 00    	jne    8048bc4 <levelthree+0x25b>
 8048a5d:	0f b6 45 f2          	movzbl -0xe(%ebp),%eax
 8048a61:	0f be c0             	movsbl %al,%eax
 8048a64:	83 ec 0c             	sub    $0xc,%esp
 8048a67:	50                   	push   %eax
 8048a68:	e8 ac fe ff ff       	call   8048919 <magic>
 8048a6d:	83 c4 10             	add    $0x10,%esp
 8048a70:	83 f8 02             	cmp    $0x2,%eax
 8048a73:	75 26                	jne    8048a9b <levelthree+0x132>
 8048a75:	0f b6 45 f3          	movzbl -0xd(%ebp),%eax
 8048a79:	0f be c0             	movsbl %al,%eax
 8048a7c:	83 ec 0c             	sub    $0xc,%esp
 8048a7f:	50                   	push   %eax
 8048a80:	e8 94 fe ff ff       	call   8048919 <magic>
 8048a85:	83 c4 10             	add    $0x10,%esp
 8048a88:	83 f8 04             	cmp    $0x4,%eax
 8048a8b:	0f 85 aa 00 00 00    	jne    8048b3b <levelthree+0x1d2>
 8048a91:	b8 01 00 00 00       	mov    $0x1,%eax
 8048a96:	e9 a8 01 00 00       	jmp    8048c43 <levelthree+0x2da>
 8048a9b:	b8 00 00 00 00       	mov    $0x0,%eax
 8048aa0:	e9 9e 01 00 00       	jmp    8048c43 <levelthree+0x2da>
 8048aa5:	b8 00 00 00 00       	mov    $0x0,%eax
 8048aaa:	e9 94 01 00 00       	jmp    8048c43 <levelthree+0x2da>
 8048aaf:	90                   	nop
 8048ab0:	eb 04                	jmp    8048ab6 <levelthree+0x14d>
 8048ab2:	90                   	nop
 8048ab3:	eb 01                	jmp    8048ab6 <levelthree+0x14d>
 8048ab5:	90                   	nop
 8048ab6:	0f b6 45 f0          	movzbl -0x10(%ebp),%eax
 8048aba:	0f be c0             	movsbl %al,%eax
 8048abd:	83 ec 0c             	sub    $0xc,%esp
 8048ac0:	50                   	push   %eax
 8048ac1:	e8 53 fe ff ff       	call   8048919 <magic>
 8048ac6:	83 c4 10             	add    $0x10,%esp
 8048ac9:	83 f8 03             	cmp    $0x3,%eax
 8048acc:	75 60                	jne    8048b2e <levelthree+0x1c5>
 8048ace:	0f b6 45 f1          	movzbl -0xf(%ebp),%eax
 8048ad2:	0f be c0             	movsbl %al,%eax
 8048ad5:	83 ec 0c             	sub    $0xc,%esp
 8048ad8:	50                   	push   %eax
 8048ad9:	e8 3b fe ff ff       	call   8048919 <magic>
 8048ade:	83 c4 10             	add    $0x10,%esp
 8048ae1:	83 f8 05             	cmp    $0x5,%eax
 8048ae4:	75 3e                	jne    8048b24 <levelthree+0x1bb>
 8048ae6:	0f b6 45 f2          	movzbl -0xe(%ebp),%eax
 8048aea:	0f be c0             	movsbl %al,%eax
 8048aed:	83 ec 0c             	sub    $0xc,%esp
 8048af0:	50                   	push   %eax
 8048af1:	e8 23 fe ff ff       	call   8048919 <magic>
 8048af6:	83 c4 10             	add    $0x10,%esp
 8048af9:	83 f8 02             	cmp    $0x2,%eax
 8048afc:	75 40                	jne    8048b3e <levelthree+0x1d5>
 8048afe:	0f b6 45 f3          	movzbl -0xd(%ebp),%eax
 8048b02:	0f be c0             	movsbl %al,%eax
 8048b05:	83 ec 0c             	sub    $0xc,%esp
 8048b08:	50                   	push   %eax
 8048b09:	e8 0b fe ff ff       	call   8048919 <magic>
 8048b0e:	83 c4 10             	add    $0x10,%esp
 8048b11:	83 f8 02             	cmp    $0x2,%eax
 8048b14:	0f 84 0b ff ff ff    	je     8048a25 <levelthree+0xbc>
 8048b1a:	b8 00 00 00 00       	mov    $0x0,%eax
 8048b1f:	e9 1f 01 00 00       	jmp    8048c43 <levelthree+0x2da>
 8048b24:	b8 00 00 00 00       	mov    $0x0,%eax
 8048b29:	e9 15 01 00 00       	jmp    8048c43 <levelthree+0x2da>
 8048b2e:	b8 00 00 00 00       	mov    $0x0,%eax
 8048b33:	e9 0b 01 00 00       	jmp    8048c43 <levelthree+0x2da>
 8048b38:	90                   	nop
 8048b39:	eb 04                	jmp    8048b3f <levelthree+0x1d6>
 8048b3b:	90                   	nop
 8048b3c:	eb 01                	jmp    8048b3f <levelthree+0x1d6>
 8048b3e:	90                   	nop
 8048b3f:	0f b6 45 f0          	movzbl -0x10(%ebp),%eax
 8048b43:	0f be c0             	movsbl %al,%eax
 8048b46:	83 ec 0c             	sub    $0xc,%esp
 8048b49:	50                   	push   %eax
 8048b4a:	e8 ca fd ff ff       	call   8048919 <magic>
 8048b4f:	83 c4 10             	add    $0x10,%esp
 8048b52:	83 f8 02             	cmp    $0x2,%eax
 8048b55:	75 60                	jne    8048bb7 <levelthree+0x24e>
 8048b57:	0f b6 45 f1          	movzbl -0xf(%ebp),%eax
 8048b5b:	0f be c0             	movsbl %al,%eax
 8048b5e:	83 ec 0c             	sub    $0xc,%esp
 8048b61:	50                   	push   %eax
 8048b62:	e8 b2 fd ff ff       	call   8048919 <magic>
 8048b67:	83 c4 10             	add    $0x10,%esp
 8048b6a:	83 f8 01             	cmp    $0x1,%eax
 8048b6d:	0f 85 3f ff ff ff    	jne    8048ab2 <levelthree+0x149>
 8048b73:	0f b6 45 f2          	movzbl -0xe(%ebp),%eax
 8048b77:	0f be c0             	movsbl %al,%eax
 8048b7a:	83 ec 0c             	sub    $0xc,%esp
 8048b7d:	50                   	push   %eax
 8048b7e:	e8 96 fd ff ff       	call   8048919 <magic>
 8048b83:	83 c4 10             	add    $0x10,%esp
 8048b86:	83 f8 05             	cmp    $0x5,%eax
 8048b89:	75 22                	jne    8048bad <levelthree+0x244>
 8048b8b:	0f b6 45 f3          	movzbl -0xd(%ebp),%eax
 8048b8f:	0f be c0             	movsbl %al,%eax
 8048b92:	83 ec 0c             	sub    $0xc,%esp
 8048b95:	50                   	push   %eax
 8048b96:	e8 7e fd ff ff       	call   8048919 <magic>
 8048b9b:	83 c4 10             	add    $0x10,%esp
 8048b9e:	83 f8 01             	cmp    $0x1,%eax
 8048ba1:	75 24                	jne    8048bc7 <levelthree+0x25e>
 8048ba3:	b8 00 00 00 00       	mov    $0x0,%eax
 8048ba8:	e9 96 00 00 00       	jmp    8048c43 <levelthree+0x2da>
 8048bad:	b8 00 00 00 00       	mov    $0x0,%eax
 8048bb2:	e9 8c 00 00 00       	jmp    8048c43 <levelthree+0x2da>
 8048bb7:	b8 00 00 00 00       	mov    $0x0,%eax
 8048bbc:	e9 82 00 00 00       	jmp    8048c43 <levelthree+0x2da>
 8048bc1:	90                   	nop
 8048bc2:	eb 04                	jmp    8048bc8 <levelthree+0x25f>
 8048bc4:	90                   	nop
 8048bc5:	eb 01                	jmp    8048bc8 <levelthree+0x25f>
 8048bc7:	90                   	nop
 8048bc8:	0f b6 45 f0          	movzbl -0x10(%ebp),%eax
 8048bcc:	0f be c0             	movsbl %al,%eax
 8048bcf:	83 ec 0c             	sub    $0xc,%esp
 8048bd2:	50                   	push   %eax
 8048bd3:	e8 41 fd ff ff       	call   8048919 <magic>
 8048bd8:	83 c4 10             	add    $0x10,%esp
 8048bdb:	83 f8 05             	cmp    $0x5,%eax
 8048bde:	75 5e                	jne    8048c3e <levelthree+0x2d5>
 8048be0:	0f b6 45 f1          	movzbl -0xf(%ebp),%eax
 8048be4:	0f be c0             	movsbl %al,%eax
 8048be7:	83 ec 0c             	sub    $0xc,%esp
 8048bea:	50                   	push   %eax
 8048beb:	e8 29 fd ff ff       	call   8048919 <magic>
 8048bf0:	83 c4 10             	add    $0x10,%esp
 8048bf3:	83 f8 03             	cmp    $0x3,%eax
 8048bf6:	0f 85 2c fe ff ff    	jne    8048a28 <levelthree+0xbf>
 8048bfc:	0f b6 45 f2          	movzbl -0xe(%ebp),%eax
 8048c00:	0f be c0             	movsbl %al,%eax
 8048c03:	83 ec 0c             	sub    $0xc,%esp
 8048c06:	50                   	push   %eax
 8048c07:	e8 0d fd ff ff       	call   8048919 <magic>
 8048c0c:	83 c4 10             	add    $0x10,%esp
 8048c0f:	83 f8 05             	cmp    $0x5,%eax
 8048c12:	75 23                	jne    8048c37 <levelthree+0x2ce>
 8048c14:	0f b6 45 f3          	movzbl -0xd(%ebp),%eax
 8048c18:	0f be c0             	movsbl %al,%eax
 8048c1b:	83 ec 0c             	sub    $0xc,%esp
 8048c1e:	50                   	push   %eax
 8048c1f:	e8 f5 fc ff ff       	call   8048919 <magic>
 8048c24:	83 c4 10             	add    $0x10,%esp
 8048c27:	83 f8 04             	cmp    $0x4,%eax
 8048c2a:	0f 84 85 fe ff ff    	je     8048ab5 <levelthree+0x14c>
 8048c30:	b8 00 00 00 00       	mov    $0x0,%eax
 8048c35:	eb 0c                	jmp    8048c43 <levelthree+0x2da>
 8048c37:	b8 00 00 00 00       	mov    $0x0,%eax
 8048c3c:	eb 05                	jmp    8048c43 <levelthree+0x2da>
 8048c3e:	b8 00 00 00 00       	mov    $0x0,%eax
 8048c43:	8b 55 f4             	mov    -0xc(%ebp),%edx
 8048c46:	65 33 15 14 00 00 00 	xor    %gs:0x14,%edx
 8048c4d:	74 05                	je     8048c54 <levelthree+0x2eb>
 8048c4f:	e8 6c f9 ff ff       	call   80485c0 <__stack_chk_fail@plt>
 8048c54:	c9                   	leave  
 8048c55:	c3                   	ret    

08048c56 <rabbit_hole>:
 8048c56:	55                   	push   %ebp
 8048c57:	89 e5                	mov    %esp,%ebp
 8048c59:	53                   	push   %ebx
 8048c5a:	83 ec 24             	sub    $0x24,%esp
 8048c5d:	8b 45 08             	mov    0x8(%ebp),%eax
 8048c60:	89 45 e4             	mov    %eax,-0x1c(%ebp)
 8048c63:	65 a1 14 00 00 00    	mov    %gs:0x14,%eax
 8048c69:	89 45 f4             	mov    %eax,-0xc(%ebp)
 8048c6c:	31 c0                	xor    %eax,%eax
 8048c6e:	83 7d e4 00          	cmpl   $0x0,-0x1c(%ebp)
 8048c72:	7f 07                	jg     8048c7b <rabbit_hole+0x25>
 8048c74:	b8 01 00 00 00       	mov    $0x1,%eax
 8048c79:	eb 28                	jmp    8048ca3 <rabbit_hole+0x4d>
 8048c7b:	8b 45 e4             	mov    -0x1c(%ebp),%eax
 8048c7e:	83 e8 02             	sub    $0x2,%eax
 8048c81:	83 ec 0c             	sub    $0xc,%esp
 8048c84:	50                   	push   %eax
 8048c85:	e8 cc ff ff ff       	call   8048c56 <rabbit_hole>
 8048c8a:	83 c4 10             	add    $0x10,%esp
 8048c8d:	89 c3                	mov    %eax,%ebx
 8048c8f:	8b 45 e4             	mov    -0x1c(%ebp),%eax
 8048c92:	83 e8 04             	sub    $0x4,%eax
 8048c95:	83 ec 0c             	sub    $0xc,%esp
 8048c98:	50                   	push   %eax
 8048c99:	e8 b8 ff ff ff       	call   8048c56 <rabbit_hole>
 8048c9e:	83 c4 10             	add    $0x10,%esp
 8048ca1:	01 d8                	add    %ebx,%eax
 8048ca3:	8b 55 f4             	mov    -0xc(%ebp),%edx
 8048ca6:	65 33 15 14 00 00 00 	xor    %gs:0x14,%edx
 8048cad:	74 05                	je     8048cb4 <rabbit_hole+0x5e>
 8048caf:	e8 0c f9 ff ff       	call   80485c0 <__stack_chk_fail@plt>
 8048cb4:	8b 5d fc             	mov    -0x4(%ebp),%ebx
 8048cb7:	c9                   	leave  
 8048cb8:	c3                   	ret    

08048cb9 <levelfour>:
 8048cb9:	55                   	push   %ebp
 8048cba:	89 e5                	mov    %esp,%ebp
 8048cbc:	83 ec 18             	sub    $0x18,%esp
 8048cbf:	65 a1 14 00 00 00    	mov    %gs:0x14,%eax
 8048cc5:	89 45 f4             	mov    %eax,-0xc(%ebp)
 8048cc8:	31 c0                	xor    %eax,%eax
 8048cca:	83 ec 0c             	sub    $0xc,%esp
 8048ccd:	68 70 91 04 08       	push   $0x8049170
 8048cd2:	e8 f9 f8 ff ff       	call   80485d0 <puts@plt>
 8048cd7:	83 c4 10             	add    $0x10,%esp
 8048cda:	83 ec 0c             	sub    $0xc,%esp
 8048cdd:	68 c4 92 04 08       	push   $0x80492c4
 8048ce2:	e8 e9 f8 ff ff       	call   80485d0 <puts@plt>
 8048ce7:	83 c4 10             	add    $0x10,%esp
 8048cea:	83 ec 0c             	sub    $0xc,%esp
 8048ced:	68 70 91 04 08       	push   $0x8049170
 8048cf2:	e8 d9 f8 ff ff       	call   80485d0 <puts@plt>
 8048cf7:	83 c4 10             	add    $0x10,%esp
 8048cfa:	83 ec 0c             	sub    $0xc,%esp
 8048cfd:	68 a5 92 04 08       	push   $0x80492a5
 8048d02:	e8 89 f8 ff ff       	call   8048590 <printf@plt>
 8048d07:	83 c4 10             	add    $0x10,%esp
 8048d0a:	83 ec 08             	sub    $0x8,%esp
 8048d0d:	8d 45 f0             	lea    -0x10(%ebp),%eax
 8048d10:	50                   	push   %eax
 8048d11:	68 09 93 04 08       	push   $0x8049309
 8048d16:	e8 f5 f8 ff ff       	call   8048610 <__isoc99_scanf@plt>
 8048d1b:	83 c4 10             	add    $0x10,%esp
 8048d1e:	8b 45 f0             	mov    -0x10(%ebp),%eax
 8048d21:	c1 f8 03             	sar    $0x3,%eax
 8048d24:	83 ec 0c             	sub    $0xc,%esp
 8048d27:	50                   	push   %eax
 8048d28:	e8 29 ff ff ff       	call   8048c56 <rabbit_hole>
 8048d2d:	83 c4 10             	add    $0x10,%esp
 8048d30:	3d a2 0e c5 03       	cmp    $0x3c50ea2,%eax
 8048d35:	74 07                	je     8048d3e <levelfour+0x85>
 8048d37:	b8 00 00 00 00       	mov    $0x0,%eax
 8048d3c:	eb 05                	jmp    8048d43 <levelfour+0x8a>
 8048d3e:	b8 01 00 00 00       	mov    $0x1,%eax
 8048d43:	8b 55 f4             	mov    -0xc(%ebp),%edx
 8048d46:	65 33 15 14 00 00 00 	xor    %gs:0x14,%edx
 8048d4d:	74 05                	je     8048d54 <levelfour+0x9b>
 8048d4f:	e8 6c f8 ff ff       	call   80485c0 <__stack_chk_fail@plt>
 8048d54:	c9                   	leave  
 8048d55:	c3                   	ret    

08048d56 <ayylmao>:
 8048d56:	55                   	push   %ebp
 8048d57:	89 e5                	mov    %esp,%ebp
 8048d59:	83 ec 38             	sub    $0x38,%esp
 8048d5c:	8b 45 08             	mov    0x8(%ebp),%eax
 8048d5f:	89 45 d4             	mov    %eax,-0x2c(%ebp)
 8048d62:	65 a1 14 00 00 00    	mov    %gs:0x14,%eax
 8048d68:	89 45 f4             	mov    %eax,-0xc(%ebp)
 8048d6b:	31 c0                	xor    %eax,%eax
 8048d6d:	d9 05 f8 96 04 08    	flds   0x80496f8
 8048d73:	d9 5d ec             	fstps  -0x14(%ebp)
 8048d76:	d9 45 d4             	flds   -0x2c(%ebp)
 8048d79:	d9 05 fc 96 04 08    	flds   0x80496fc
 8048d7f:	de c9                	fmulp  %st,%st(1)
 8048d81:	d9 5d f0             	fstps  -0x10(%ebp)
 8048d84:	d9 45 d4             	flds   -0x2c(%ebp)
 8048d87:	d9 5d e8             	fstps  -0x18(%ebp)
 8048d8a:	8d 45 e8             	lea    -0x18(%ebp),%eax
 8048d8d:	8b 00                	mov    (%eax),%eax
 8048d8f:	89 45 e4             	mov    %eax,-0x1c(%ebp)
 8048d92:	8b 45 e4             	mov    -0x1c(%ebp),%eax
 8048d95:	d1 f8                	sar    %eax
 8048d97:	ba df 59 37 5f       	mov    $0x5f3759df,%edx
 8048d9c:	29 c2                	sub    %eax,%edx
 8048d9e:	89 d0                	mov    %edx,%eax
 8048da0:	89 45 e4             	mov    %eax,-0x1c(%ebp)
 8048da3:	8d 45 e4             	lea    -0x1c(%ebp),%eax
 8048da6:	d9 00                	flds   (%eax)
 8048da8:	d9 5d e8             	fstps  -0x18(%ebp)
 8048dab:	d9 45 e8             	flds   -0x18(%ebp)
 8048dae:	d8 4d f0             	fmuls  -0x10(%ebp)
 8048db1:	d9 45 e8             	flds   -0x18(%ebp)
 8048db4:	de c9                	fmulp  %st,%st(1)
 8048db6:	d9 45 ec             	flds   -0x14(%ebp)
 8048db9:	de e1                	fsubp  %st,%st(1)
 8048dbb:	d9 45 e8             	flds   -0x18(%ebp)
 8048dbe:	de c9                	fmulp  %st,%st(1)
 8048dc0:	d9 5d e8             	fstps  -0x18(%ebp)
 8048dc3:	d9 45 e8             	flds   -0x18(%ebp)
 8048dc6:	8b 45 f4             	mov    -0xc(%ebp),%eax
 8048dc9:	65 33 05 14 00 00 00 	xor    %gs:0x14,%eax
 8048dd0:	74 07                	je     8048dd9 <ayylmao+0x83>
 8048dd2:	dd d8                	fstp   %st(0)
 8048dd4:	e8 e7 f7 ff ff       	call   80485c0 <__stack_chk_fail@plt>
 8048dd9:	c9                   	leave  
 8048dda:	c3                   	ret    

08048ddb <levelfive>:
 8048ddb:	55                   	push   %ebp
 8048ddc:	89 e5                	mov    %esp,%ebp
 8048dde:	83 ec 58             	sub    $0x58,%esp
 8048de1:	65 a1 14 00 00 00    	mov    %gs:0x14,%eax
 8048de7:	89 45 f4             	mov    %eax,-0xc(%ebp)
 8048dea:	31 c0                	xor    %eax,%eax
 8048dec:	c7 45 cc 03 00 00 00 	movl   $0x3,-0x34(%ebp)
 8048df3:	c7 45 d4 01 00 00 00 	movl   $0x1,-0x2c(%ebp)
 8048dfa:	c7 45 dc 03 00 00 00 	movl   $0x3,-0x24(%ebp)
 8048e01:	c7 45 e4 03 00 00 00 	movl   $0x3,-0x1c(%ebp)
 8048e08:	c7 45 ec 07 00 00 00 	movl   $0x7,-0x14(%ebp)
 8048e0f:	83 ec 0c             	sub    $0xc,%esp
 8048e12:	68 70 91 04 08       	push   $0x8049170
 8048e17:	e8 b4 f7 ff ff       	call   80485d0 <puts@plt>
 8048e1c:	83 c4 10             	add    $0x10,%esp
 8048e1f:	83 ec 0c             	sub    $0xc,%esp
 8048e22:	68 0c 93 04 08       	push   $0x804930c
 8048e27:	e8 a4 f7 ff ff       	call   80485d0 <puts@plt>
 8048e2c:	83 c4 10             	add    $0x10,%esp
 8048e2f:	83 ec 0c             	sub    $0xc,%esp
 8048e32:	68 70 91 04 08       	push   $0x8049170
 8048e37:	e8 94 f7 ff ff       	call   80485d0 <puts@plt>
 8048e3c:	83 c4 10             	add    $0x10,%esp
 8048e3f:	83 ec 0c             	sub    $0xc,%esp
 8048e42:	68 a5 92 04 08       	push   $0x80492a5
 8048e47:	e8 44 f7 ff ff       	call   8048590 <printf@plt>
 8048e4c:	83 c4 10             	add    $0x10,%esp
 8048e4f:	c7 45 c4 00 00 00 00 	movl   $0x0,-0x3c(%ebp)
 8048e56:	eb 23                	jmp    8048e7b <levelfive+0xa0>
 8048e58:	8d 45 cc             	lea    -0x34(%ebp),%eax
 8048e5b:	8b 55 c4             	mov    -0x3c(%ebp),%edx
 8048e5e:	c1 e2 03             	shl    $0x3,%edx
 8048e61:	01 d0                	add    %edx,%eax
 8048e63:	83 c0 04             	add    $0x4,%eax
 8048e66:	83 ec 08             	sub    $0x8,%esp
 8048e69:	50                   	push   %eax
 8048e6a:	68 51 93 04 08       	push   $0x8049351
 8048e6f:	e8 9c f7 ff ff       	call   8048610 <__isoc99_scanf@plt>
 8048e74:	83 c4 10             	add    $0x10,%esp
 8048e77:	83 45 c4 01          	addl   $0x1,-0x3c(%ebp)
 8048e7b:	83 7d c4 04          	cmpl   $0x4,-0x3c(%ebp)
 8048e7f:	7e d7                	jle    8048e58 <levelfive+0x7d>
 8048e81:	c7 45 c8 00 00 00 00 	movl   $0x0,-0x38(%ebp)
 8048e88:	eb 5a                	jmp    8048ee4 <levelfive+0x109>
 8048e8a:	8b 45 c8             	mov    -0x38(%ebp),%eax
 8048e8d:	d9 44 c5 d0          	flds   -0x30(%ebp,%eax,8)
 8048e91:	83 ec 0c             	sub    $0xc,%esp
 8048e94:	8d 64 24 fc          	lea    -0x4(%esp),%esp
 8048e98:	d9 1c 24             	fstps  (%esp)
 8048e9b:	e8 b6 fe ff ff       	call   8048d56 <ayylmao>
 8048ea0:	83 c4 10             	add    $0x10,%esp
 8048ea3:	83 ec 08             	sub    $0x8,%esp
 8048ea6:	8d 64 24 f8          	lea    -0x8(%esp),%esp
 8048eaa:	dd 1c 24             	fstpl  (%esp)
 8048ead:	e8 be f6 ff ff       	call   8048570 <round@plt>
 8048eb2:	83 c4 10             	add    $0x10,%esp
 8048eb5:	d9 7d b6             	fnstcw -0x4a(%ebp)
 8048eb8:	0f b7 45 b6          	movzwl -0x4a(%ebp),%eax
 8048ebc:	b4 0c                	mov    $0xc,%ah
 8048ebe:	66 89 45 b4          	mov    %ax,-0x4c(%ebp)
 8048ec2:	d9 6d b4             	fldcw  -0x4c(%ebp)
 8048ec5:	db 5d b0             	fistpl -0x50(%ebp)
 8048ec8:	d9 6d b6             	fldcw  -0x4a(%ebp)
 8048ecb:	8b 55 b0             	mov    -0x50(%ebp),%edx
 8048ece:	8b 45 c8             	mov    -0x38(%ebp),%eax
 8048ed1:	8b 44 c5 cc          	mov    -0x34(%ebp,%eax,8),%eax
 8048ed5:	39 c2                	cmp    %eax,%edx
 8048ed7:	74 07                	je     8048ee0 <levelfive+0x105>
 8048ed9:	b8 00 00 00 00       	mov    $0x0,%eax
 8048ede:	eb 0f                	jmp    8048eef <levelfive+0x114>
 8048ee0:	83 45 c8 01          	addl   $0x1,-0x38(%ebp)
 8048ee4:	83 7d c8 04          	cmpl   $0x4,-0x38(%ebp)
 8048ee8:	7e a0                	jle    8048e8a <levelfive+0xaf>
 8048eea:	b8 01 00 00 00       	mov    $0x1,%eax
 8048eef:	8b 4d f4             	mov    -0xc(%ebp),%ecx
 8048ef2:	65 33 0d 14 00 00 00 	xor    %gs:0x14,%ecx
 8048ef9:	74 05                	je     8048f00 <levelfive+0x125>
 8048efb:	e8 c0 f6 ff ff       	call   80485c0 <__stack_chk_fail@plt>
 8048f00:	c9                   	leave  
 8048f01:	c3                   	ret    

08048f02 <main>:
 8048f02:	8d 4c 24 04          	lea    0x4(%esp),%ecx
 8048f06:	83 e4 f0             	and    $0xfffffff0,%esp
 8048f09:	ff 71 fc             	pushl  -0x4(%ecx)
 8048f0c:	55                   	push   %ebp
 8048f0d:	89 e5                	mov    %esp,%ebp
 8048f0f:	51                   	push   %ecx
 8048f10:	83 ec 14             	sub    $0x14,%esp
 8048f13:	65 a1 14 00 00 00    	mov    %gs:0x14,%eax
 8048f19:	89 45 f4             	mov    %eax,-0xc(%ebp)
 8048f1c:	31 c0                	xor    %eax,%eax
 8048f1e:	6a 00                	push   $0x0
 8048f20:	6a 00                	push   $0x0
 8048f22:	6a 00                	push   $0x0
 8048f24:	6a 00                	push   $0x0
 8048f26:	e8 f5 f6 ff ff       	call   8048620 <ptrace@plt>
 8048f2b:	83 c4 10             	add    $0x10,%esp
 8048f2e:	83 f8 ff             	cmp    $0xffffffff,%eax
 8048f31:	75 0a                	jne    8048f3d <main+0x3b>
 8048f33:	83 ec 0c             	sub    $0xc,%esp
 8048f36:	6a 00                	push   $0x0
 8048f38:	e8 a3 f6 ff ff       	call   80485e0 <exit@plt>
 8048f3d:	a1 60 b0 04 08       	mov    0x804b060,%eax
 8048f42:	6a 00                	push   $0x0
 8048f44:	6a 02                	push   $0x2
 8048f46:	6a 00                	push   $0x0
 8048f48:	50                   	push   %eax
 8048f49:	e8 b2 f6 ff ff       	call   8048600 <setvbuf@plt>
 8048f4e:	83 c4 10             	add    $0x10,%esp
 8048f51:	a1 64 b0 04 08       	mov    0x804b064,%eax
 8048f56:	6a 00                	push   $0x0
 8048f58:	6a 02                	push   $0x2
 8048f5a:	6a 00                	push   $0x0
 8048f5c:	50                   	push   %eax
 8048f5d:	e8 9e f6 ff ff       	call   8048600 <setvbuf@plt>
 8048f62:	83 c4 10             	add    $0x10,%esp
 8048f65:	83 ec 0c             	sub    $0xc,%esp
 8048f68:	68 54 93 04 08       	push   $0x8049354
 8048f6d:	e8 5e f6 ff ff       	call   80485d0 <puts@plt>
 8048f72:	83 c4 10             	add    $0x10,%esp
 8048f75:	83 ec 0c             	sub    $0xc,%esp
 8048f78:	68 a4 93 04 08       	push   $0x80493a4
 8048f7d:	e8 4e f6 ff ff       	call   80485d0 <puts@plt>
 8048f82:	83 c4 10             	add    $0x10,%esp
 8048f85:	83 ec 0c             	sub    $0xc,%esp
 8048f88:	68 04 94 04 08       	push   $0x8049404
 8048f8d:	e8 3e f6 ff ff       	call   80485d0 <puts@plt>
 8048f92:	83 c4 10             	add    $0x10,%esp
 8048f95:	83 ec 0c             	sub    $0xc,%esp
 8048f98:	68 64 94 04 08       	push   $0x8049464
 8048f9d:	e8 2e f6 ff ff       	call   80485d0 <puts@plt>
 8048fa2:	83 c4 10             	add    $0x10,%esp
 8048fa5:	83 ec 0c             	sub    $0xc,%esp
 8048fa8:	68 c4 94 04 08       	push   $0x80494c4
 8048fad:	e8 1e f6 ff ff       	call   80485d0 <puts@plt>
 8048fb2:	83 c4 10             	add    $0x10,%esp
 8048fb5:	83 ec 0c             	sub    $0xc,%esp
 8048fb8:	68 24 95 04 08       	push   $0x8049524
 8048fbd:	e8 0e f6 ff ff       	call   80485d0 <puts@plt>
 8048fc2:	83 c4 10             	add    $0x10,%esp
 8048fc5:	83 ec 0c             	sub    $0xc,%esp
 8048fc8:	68 84 95 04 08       	push   $0x8049584
 8048fcd:	e8 fe f5 ff ff       	call   80485d0 <puts@plt>
 8048fd2:	83 c4 10             	add    $0x10,%esp
 8048fd5:	83 ec 0c             	sub    $0xc,%esp
 8048fd8:	68 d8 95 04 08       	push   $0x80495d8
 8048fdd:	e8 ee f5 ff ff       	call   80485d0 <puts@plt>
 8048fe2:	83 c4 10             	add    $0x10,%esp
 8048fe5:	83 ec 0c             	sub    $0xc,%esp
 8048fe8:	68 84 95 04 08       	push   $0x8049584
 8048fed:	e8 de f5 ff ff       	call   80485d0 <puts@plt>
 8048ff2:	83 c4 10             	add    $0x10,%esp
 8048ff5:	83 ec 0c             	sub    $0xc,%esp
 8048ff8:	68 30 96 04 08       	push   $0x8049630
 8048ffd:	e8 ce f5 ff ff       	call   80485d0 <puts@plt>
 8049002:	83 c4 10             	add    $0x10,%esp
 8049005:	83 ec 0c             	sub    $0xc,%esp
 8049008:	68 8c 96 04 08       	push   $0x804968c
 804900d:	e8 be f5 ff ff       	call   80485d0 <puts@plt>
 8049012:	83 c4 10             	add    $0x10,%esp
 8049015:	e8 21 f7 ff ff       	call   804873b <levelone>
 804901a:	84 c0                	test   %al,%al
 804901c:	74 1b                	je     8049039 <main+0x137>
 804901e:	83 ec 0c             	sub    $0xc,%esp
 8049021:	68 da 96 04 08       	push   $0x80496da
 8049026:	e8 a5 f5 ff ff       	call   80485d0 <puts@plt>
 804902b:	83 c4 10             	add    $0x10,%esp
 804902e:	e8 ed f7 ff ff       	call   8048820 <leveltwo>
 8049033:	84 c0                	test   %al,%al
 8049035:	74 27                	je     804905e <main+0x15c>
 8049037:	eb 0a                	jmp    8049043 <main+0x141>
 8049039:	83 ec 0c             	sub    $0xc,%esp
 804903c:	6a 00                	push   $0x0
 804903e:	e8 9d f5 ff ff       	call   80485e0 <exit@plt>
 8049043:	83 ec 0c             	sub    $0xc,%esp
 8049046:	68 da 96 04 08       	push   $0x80496da
 804904b:	e8 80 f5 ff ff       	call   80485d0 <puts@plt>
 8049050:	83 c4 10             	add    $0x10,%esp
 8049053:	e8 11 f9 ff ff       	call   8048969 <levelthree>
 8049058:	84 c0                	test   %al,%al
 804905a:	74 27                	je     8049083 <main+0x181>
 804905c:	eb 0a                	jmp    8049068 <main+0x166>
 804905e:	83 ec 0c             	sub    $0xc,%esp
 8049061:	6a 00                	push   $0x0
 8049063:	e8 78 f5 ff ff       	call   80485e0 <exit@plt>
 8049068:	83 ec 0c             	sub    $0xc,%esp
 804906b:	68 da 96 04 08       	push   $0x80496da
 8049070:	e8 5b f5 ff ff       	call   80485d0 <puts@plt>
 8049075:	83 c4 10             	add    $0x10,%esp
 8049078:	e8 3c fc ff ff       	call   8048cb9 <levelfour>
 804907d:	84 c0                	test   %al,%al
 804907f:	74 27                	je     80490a8 <main+0x1a6>
 8049081:	eb 0a                	jmp    804908d <main+0x18b>
 8049083:	83 ec 0c             	sub    $0xc,%esp
 8049086:	6a 00                	push   $0x0
 8049088:	e8 53 f5 ff ff       	call   80485e0 <exit@plt>
 804908d:	83 ec 0c             	sub    $0xc,%esp
 8049090:	68 da 96 04 08       	push   $0x80496da
 8049095:	e8 36 f5 ff ff       	call   80485d0 <puts@plt>
 804909a:	83 c4 10             	add    $0x10,%esp
 804909d:	e8 39 fd ff ff       	call   8048ddb <levelfive>
 80490a2:	84 c0                	test   %al,%al
 80490a4:	74 2f                	je     80490d5 <main+0x1d3>
 80490a6:	eb 0a                	jmp    80490b2 <main+0x1b0>
 80490a8:	83 ec 0c             	sub    $0xc,%esp
 80490ab:	6a 00                	push   $0x0
 80490ad:	e8 2e f5 ff ff       	call   80485e0 <exit@plt>
 80490b2:	83 ec 0c             	sub    $0xc,%esp
 80490b5:	68 da 96 04 08       	push   $0x80496da
 80490ba:	e8 11 f5 ff ff       	call   80485d0 <puts@plt>
 80490bf:	83 c4 10             	add    $0x10,%esp
 80490c2:	b8 00 00 00 00       	mov    $0x0,%eax
 80490c7:	8b 55 f4             	mov    -0xc(%ebp),%edx
 80490ca:	65 33 15 14 00 00 00 	xor    %gs:0x14,%edx
 80490d1:	74 11                	je     80490e4 <main+0x1e2>
 80490d3:	eb 0a                	jmp    80490df <main+0x1dd>
 80490d5:	83 ec 0c             	sub    $0xc,%esp
 80490d8:	6a 00                	push   $0x0
 80490da:	e8 01 f5 ff ff       	call   80485e0 <exit@plt>
 80490df:	e8 dc f4 ff ff       	call   80485c0 <__stack_chk_fail@plt>
 80490e4:	8b 4d fc             	mov    -0x4(%ebp),%ecx
 80490e7:	c9                   	leave  
 80490e8:	8d 61 fc             	lea    -0x4(%ecx),%esp
 80490eb:	c3                   	ret    
 80490ec:	66 90                	xchg   %ax,%ax
 80490ee:	66 90                	xchg   %ax,%ax

080490f0 <__libc_csu_init>:
 80490f0:	55                   	push   %ebp
 80490f1:	57                   	push   %edi
 80490f2:	56                   	push   %esi
 80490f3:	53                   	push   %ebx
 80490f4:	e8 77 f5 ff ff       	call   8048670 <__x86.get_pc_thunk.bx>
 80490f9:	81 c3 07 1f 00 00    	add    $0x1f07,%ebx
 80490ff:	83 ec 0c             	sub    $0xc,%esp
 8049102:	8b 6c 24 20          	mov    0x20(%esp),%ebp
 8049106:	8d b3 04 ff ff ff    	lea    -0xfc(%ebx),%esi
 804910c:	e8 27 f4 ff ff       	call   8048538 <_init>
 8049111:	8d 83 00 ff ff ff    	lea    -0x100(%ebx),%eax
 8049117:	29 c6                	sub    %eax,%esi
 8049119:	c1 fe 02             	sar    $0x2,%esi
 804911c:	85 f6                	test   %esi,%esi
 804911e:	74 25                	je     8049145 <__libc_csu_init+0x55>
 8049120:	31 ff                	xor    %edi,%edi
 8049122:	8d b6 00 00 00 00    	lea    0x0(%esi),%esi
 8049128:	83 ec 04             	sub    $0x4,%esp
 804912b:	ff 74 24 2c          	pushl  0x2c(%esp)
 804912f:	ff 74 24 2c          	pushl  0x2c(%esp)
 8049133:	55                   	push   %ebp
 8049134:	ff 94 bb 00 ff ff ff 	call   *-0x100(%ebx,%edi,4)
 804913b:	83 c7 01             	add    $0x1,%edi
 804913e:	83 c4 10             	add    $0x10,%esp
 8049141:	39 f7                	cmp    %esi,%edi
 8049143:	75 e3                	jne    8049128 <__libc_csu_init+0x38>
 8049145:	83 c4 0c             	add    $0xc,%esp
 8049148:	5b                   	pop    %ebx
 8049149:	5e                   	pop    %esi
 804914a:	5f                   	pop    %edi
 804914b:	5d                   	pop    %ebp
 804914c:	c3                   	ret    
 804914d:	8d 76 00             	lea    0x0(%esi),%esi

08049150 <__libc_csu_fini>:
 8049150:	f3 c3                	repz ret 

Disassembly of section .fini:

08049154 <_fini>:
 8049154:	53                   	push   %ebx
 8049155:	83 ec 08             	sub    $0x8,%esp
 8049158:	e8 13 f5 ff ff       	call   8048670 <__x86.get_pc_thunk.bx>
 804915d:	81 c3 a3 1e 00 00    	add    $0x1ea3,%ebx
 8049163:	83 c4 08             	add    $0x8,%esp
 8049166:	5b                   	pop    %ebx
 8049167:	c3                   	ret    

Disassembly of section .init:

08048538 <_init>:
 8048538:	53                   	push   %ebx
 8048539:	83 ec 08             	sub    $0x8,%esp
 804853c:	e8 2f 01 00 00       	call   8048670 <__x86.get_pc_thunk.bx>
 8048541:	81 c3 bf 2a 00 00    	add    $0x2abf,%ebx
 8048547:	8b 83 fc ff ff ff    	mov    -0x4(%ebx),%eax
 804854d:	85 c0                	test   %eax,%eax
 804854f:	74 05                	je     8048556 <_init+0x1e>
 8048551:	e8 da 00 00 00       	call   8048630 <.plt.got>
 8048556:	83 c4 08             	add    $0x8,%esp
 8048559:	5b                   	pop    %ebx
 804855a:	c3                   	ret    

Disassembly of section .plt:

08048560 <.plt>:
 8048560:	ff 35 04 b0 04 08    	pushl  0x804b004
 8048566:	ff 25 08 b0 04 08    	jmp    *0x804b008
 804856c:	00 00                	add    %al,(%eax)
	...

08048570 <round@plt>:
 8048570:	ff 25 0c b0 04 08    	jmp    *0x804b00c
 8048576:	68 00 00 00 00       	push   $0x0
 804857b:	e9 e0 ff ff ff       	jmp    8048560 <.plt>

08048580 <strcmp@plt>:
 8048580:	ff 25 10 b0 04 08    	jmp    *0x804b010
 8048586:	68 08 00 00 00       	push   $0x8
 804858b:	e9 d0 ff ff ff       	jmp    8048560 <.plt>

08048590 <printf@plt>:
 8048590:	ff 25 14 b0 04 08    	jmp    *0x804b014
 8048596:	68 10 00 00 00       	push   $0x10
 804859b:	e9 c0 ff ff ff       	jmp    8048560 <.plt>

080485a0 <strcspn@plt>:
 80485a0:	ff 25 18 b0 04 08    	jmp    *0x804b018
 80485a6:	68 18 00 00 00       	push   $0x18
 80485ab:	e9 b0 ff ff ff       	jmp    8048560 <.plt>

080485b0 <fgets@plt>:
 80485b0:	ff 25 1c b0 04 08    	jmp    *0x804b01c
 80485b6:	68 20 00 00 00       	push   $0x20
 80485bb:	e9 a0 ff ff ff       	jmp    8048560 <.plt>

080485c0 <__stack_chk_fail@plt>:
 80485c0:	ff 25 20 b0 04 08    	jmp    *0x804b020
 80485c6:	68 28 00 00 00       	push   $0x28
 80485cb:	e9 90 ff ff ff       	jmp    8048560 <.plt>

080485d0 <puts@plt>:
 80485d0:	ff 25 24 b0 04 08    	jmp    *0x804b024
 80485d6:	68 30 00 00 00       	push   $0x30
 80485db:	e9 80 ff ff ff       	jmp    8048560 <.plt>

080485e0 <exit@plt>:
 80485e0:	ff 25 28 b0 04 08    	jmp    *0x804b028
 80485e6:	68 38 00 00 00       	push   $0x38
 80485eb:	e9 70 ff ff ff       	jmp    8048560 <.plt>

080485f0 <__libc_start_main@plt>:
 80485f0:	ff 25 2c b0 04 08    	jmp    *0x804b02c
 80485f6:	68 40 00 00 00       	push   $0x40
 80485fb:	e9 60 ff ff ff       	jmp    8048560 <.plt>

08048600 <setvbuf@plt>:
 8048600:	ff 25 30 b0 04 08    	jmp    *0x804b030
 8048606:	68 48 00 00 00       	push   $0x48
 804860b:	e9 50 ff ff ff       	jmp    8048560 <.plt>

08048610 <__isoc99_scanf@plt>:
 8048610:	ff 25 34 b0 04 08    	jmp    *0x804b034
 8048616:	68 50 00 00 00       	push   $0x50
 804861b:	e9 40 ff ff ff       	jmp    8048560 <.plt>

08048620 <ptrace@plt>:
 8048620:	ff 25 38 b0 04 08    	jmp    *0x804b038
 8048626:	68 58 00 00 00       	push   $0x58
 804862b:	e9 30 ff ff ff       	jmp    8048560 <.plt>

Disassembly of section .plt.got:

08048630 <.plt.got>:
 8048630:	ff 25 fc af 04 08    	jmp    *0x804affc
 8048636:	66 90                	xchg   %ax,%ax

Disassembly of section .text:

08048640 <_start>:
 8048640:	31 ed                	xor    %ebp,%ebp
 8048642:	5e                   	pop    %esi
 8048643:	89 e1                	mov    %esp,%ecx
 8048645:	83 e4 f0             	and    $0xfffffff0,%esp
 8048648:	50                   	push   %eax
 8048649:	54                   	push   %esp
 804864a:	52                   	push   %edx
 804864b:	68 50 91 04 08       	push   $0x8049150
 8048650:	68 f0 90 04 08       	push   $0x80490f0
 8048655:	51                   	push   %ecx
 8048656:	56                   	push   %esi
 8048657:	68 02 8f 04 08       	push   $0x8048f02
 804865c:	e8 8f ff ff ff       	call   80485f0 <__libc_start_main@plt>
 8048661:	f4                   	hlt    
 8048662:	66 90                	xchg   %ax,%ax
 8048664:	66 90                	xchg   %ax,%ax
 8048666:	66 90                	xchg   %ax,%ax
 8048668:	66 90                	xchg   %ax,%ax
 804866a:	66 90                	xchg   %ax,%ax
 804866c:	66 90                	xchg   %ax,%ax
 804866e:	66 90                	xchg   %ax,%ax

08048670 <__x86.get_pc_thunk.bx>:
 8048670:	8b 1c 24             	mov    (%esp),%ebx
 8048673:	c3                   	ret    
 8048674:	66 90                	xchg   %ax,%ax
 8048676:	66 90                	xchg   %ax,%ax
 8048678:	66 90                	xchg   %ax,%ax
 804867a:	66 90                	xchg   %ax,%ax
 804867c:	66 90                	xchg   %ax,%ax
 804867e:	66 90                	xchg   %ax,%ax

08048680 <deregister_tm_clones>:
 8048680:	b8 47 b0 04 08       	mov    $0x804b047,%eax
 8048685:	2d 44 b0 04 08       	sub    $0x804b044,%eax
 804868a:	83 f8 06             	cmp    $0x6,%eax
 804868d:	76 1a                	jbe    80486a9 <deregister_tm_clones+0x29>
 804868f:	b8 00 00 00 00       	mov    $0x0,%eax
 8048694:	85 c0                	test   %eax,%eax
 8048696:	74 11                	je     80486a9 <deregister_tm_clones+0x29>
 8048698:	55                   	push   %ebp
 8048699:	89 e5                	mov    %esp,%ebp
 804869b:	83 ec 14             	sub    $0x14,%esp
 804869e:	68 44 b0 04 08       	push   $0x804b044
 80486a3:	ff d0                	call   *%eax
 80486a5:	83 c4 10             	add    $0x10,%esp
 80486a8:	c9                   	leave  
 80486a9:	f3 c3                	repz ret 
 80486ab:	90                   	nop
 80486ac:	8d 74 26 00          	lea    0x0(%esi,%eiz,1),%esi

080486b0 <register_tm_clones>:
 80486b0:	b8 44 b0 04 08       	mov    $0x804b044,%eax
 80486b5:	2d 44 b0 04 08       	sub    $0x804b044,%eax
 80486ba:	c1 f8 02             	sar    $0x2,%eax
 80486bd:	89 c2                	mov    %eax,%edx
 80486bf:	c1 ea 1f             	shr    $0x1f,%edx
 80486c2:	01 d0                	add    %edx,%eax
 80486c4:	d1 f8                	sar    %eax
 80486c6:	74 1b                	je     80486e3 <register_tm_clones+0x33>
 80486c8:	ba 00 00 00 00       	mov    $0x0,%edx
 80486cd:	85 d2                	test   %edx,%edx
 80486cf:	74 12                	je     80486e3 <register_tm_clones+0x33>
 80486d1:	55                   	push   %ebp
 80486d2:	89 e5                	mov    %esp,%ebp
 80486d4:	83 ec 10             	sub    $0x10,%esp
 80486d7:	50                   	push   %eax
 80486d8:	68 44 b0 04 08       	push   $0x804b044
 80486dd:	ff d2                	call   *%edx
 80486df:	83 c4 10             	add    $0x10,%esp
 80486e2:	c9                   	leave  
 80486e3:	f3 c3                	repz ret 
 80486e5:	8d 74 26 00          	lea    0x0(%esi,%eiz,1),%esi
 80486e9:	8d bc 27 00 00 00 00 	lea    0x0(%edi,%eiz,1),%edi

080486f0 <__do_global_dtors_aux>:
 80486f0:	80 3d 68 b0 04 08 00 	cmpb   $0x0,0x804b068
 80486f7:	75 13                	jne    804870c <__do_global_dtors_aux+0x1c>
 80486f9:	55                   	push   %ebp
 80486fa:	89 e5                	mov    %esp,%ebp
 80486fc:	83 ec 08             	sub    $0x8,%esp
 80486ff:	e8 7c ff ff ff       	call   8048680 <deregister_tm_clones>
 8048704:	c6 05 68 b0 04 08 01 	movb   $0x1,0x804b068
 804870b:	c9                   	leave  
 804870c:	f3 c3                	repz ret 
 804870e:	66 90                	xchg   %ax,%ax

08048710 <frame_dummy>:
 8048710:	b8 08 af 04 08       	mov    $0x804af08,%eax
 8048715:	8b 10                	mov    (%eax),%edx
 8048717:	85 d2                	test   %edx,%edx
 8048719:	75 05                	jne    8048720 <frame_dummy+0x10>
 804871b:	eb 93                	jmp    80486b0 <register_tm_clones>
 804871d:	8d 76 00             	lea    0x0(%esi),%esi
 8048720:	ba 00 00 00 00       	mov    $0x0,%edx
 8048725:	85 d2                	test   %edx,%edx
 8048727:	74 f2                	je     804871b <frame_dummy+0xb>
 8048729:	55                   	push   %ebp
 804872a:	89 e5                	mov    %esp,%ebp
 804872c:	83 ec 14             	sub    $0x14,%esp
 804872f:	50                   	push   %eax
 8048730:	ff d2                	call   *%edx
 8048732:	83 c4 10             	add    $0x10,%esp
 8048735:	c9                   	leave  
 8048736:	e9 75 ff ff ff       	jmp    80486b0 <register_tm_clones>

0804873b <levelone>:
 804873b:	55                   	push   %ebp
 804873c:	89 e5                	mov    %esp,%ebp
 804873e:	83 ec 48             	sub    $0x48,%esp
 8048741:	65 a1 14 00 00 00    	mov    %gs:0x14,%eax
 8048747:	89 45 f4             	mov    %eax,-0xc(%ebp)
 804874a:	31 c0                	xor    %eax,%eax
 804874c:	c7 45 bb 49 20 77 40 	movl   $0x40772049,-0x45(%ebp)
 8048753:	c7 45 bf 6e 6e 40 20 	movl   $0x20406e6e,-0x41(%ebp)
 804875a:	c7 45 c3 62 65 20 74 	movl   $0x74206562,-0x3d(%ebp)
 8048761:	c7 45 c7 68 65 20 76 	movl   $0x76206568,-0x39(%ebp)
 8048768:	c7 45 cb 65 72 79 20 	movl   $0x20797265,-0x35(%ebp)
 804876f:	c7 45 cf 62 65 73 74 	movl   $0x74736562,-0x31(%ebp)
 8048776:	c6 45 d3 00          	movb   $0x0,-0x2d(%ebp)
 804877a:	83 ec 0c             	sub    $0xc,%esp
 804877d:	68 70 91 04 08       	push   $0x8049170
 8048782:	e8 49 fe ff ff       	call   80485d0 <puts@plt>
 8048787:	83 c4 10             	add    $0x10,%esp
 804878a:	83 ec 0c             	sub    $0xc,%esp
 804878d:	68 b8 91 04 08       	push   $0x80491b8
 8048792:	e8 39 fe ff ff       	call   80485d0 <puts@plt>
 8048797:	83 c4 10             	add    $0x10,%esp
 804879a:	83 ec 0c             	sub    $0xc,%esp
 804879d:	68 70 91 04 08       	push   $0x8049170
 80487a2:	e8 29 fe ff ff       	call   80485d0 <puts@plt>
 80487a7:	83 c4 10             	add    $0x10,%esp
 80487aa:	83 ec 0c             	sub    $0xc,%esp
 80487ad:	68 fd 91 04 08       	push   $0x80491fd
 80487b2:	e8 d9 fd ff ff       	call   8048590 <printf@plt>
 80487b7:	83 c4 10             	add    $0x10,%esp
 80487ba:	a1 60 b0 04 08       	mov    0x804b060,%eax
 80487bf:	83 ec 04             	sub    $0x4,%esp
 80487c2:	50                   	push   %eax
 80487c3:	6a 20                	push   $0x20
 80487c5:	8d 45 d4             	lea    -0x2c(%ebp),%eax
 80487c8:	50                   	push   %eax
 80487c9:	e8 e2 fd ff ff       	call   80485b0 <fgets@plt>
 80487ce:	83 c4 10             	add    $0x10,%esp
 80487d1:	83 ec 08             	sub    $0x8,%esp
 80487d4:	68 0a 92 04 08       	push   $0x804920a
 80487d9:	8d 45 d4             	lea    -0x2c(%ebp),%eax
 80487dc:	50                   	push   %eax
 80487dd:	e8 be fd ff ff       	call   80485a0 <strcspn@plt>
 80487e2:	83 c4 10             	add    $0x10,%esp
 80487e5:	c6 44 05 d4 00       	movb   $0x0,-0x2c(%ebp,%eax,1)
 80487ea:	83 ec 08             	sub    $0x8,%esp
 80487ed:	8d 45 d4             	lea    -0x2c(%ebp),%eax
 80487f0:	50                   	push   %eax
 80487f1:	8d 45 bb             	lea    -0x45(%ebp),%eax
 80487f4:	50                   	push   %eax
 80487f5:	e8 86 fd ff ff       	call   8048580 <strcmp@plt>
 80487fa:	83 c4 10             	add    $0x10,%esp
 80487fd:	85 c0                	test   %eax,%eax
 80487ff:	75 07                	jne    8048808 <levelone+0xcd>
 8048801:	b8 01 00 00 00       	mov    $0x1,%eax
 8048806:	eb 05                	jmp    804880d <levelone+0xd2>
 8048808:	b8 00 00 00 00       	mov    $0x0,%eax
 804880d:	8b 55 f4             	mov    -0xc(%ebp),%edx
 8048810:	65 33 15 14 00 00 00 	xor    %gs:0x14,%edx
 8048817:	74 05                	je     804881e <levelone+0xe3>
 8048819:	e8 a2 fd ff ff       	call   80485c0 <__stack_chk_fail@plt>
 804881e:	c9                   	leave  
 804881f:	c3                   	ret    

08048820 <leveltwo>:
 8048820:	55                   	push   %ebp
 8048821:	89 e5                	mov    %esp,%ebp
 8048823:	83 ec 38             	sub    $0x38,%esp
 8048826:	65 a1 14 00 00 00    	mov    %gs:0x14,%eax
 804882c:	89 45 f4             	mov    %eax,-0xc(%ebp)
 804882f:	31 c0                	xor    %eax,%eax
 8048831:	83 ec 0c             	sub    $0xc,%esp
 8048834:	68 70 91 04 08       	push   $0x8049170
 8048839:	e8 92 fd ff ff       	call   80485d0 <puts@plt>
 804883e:	83 c4 10             	add    $0x10,%esp
 8048841:	83 ec 0c             	sub    $0xc,%esp
 8048844:	68 0c 92 04 08       	push   $0x804920c
 8048849:	e8 82 fd ff ff       	call   80485d0 <puts@plt>
 804884e:	83 c4 10             	add    $0x10,%esp
 8048851:	83 ec 0c             	sub    $0xc,%esp
 8048854:	68 70 91 04 08       	push   $0x8049170
 8048859:	e8 72 fd ff ff       	call   80485d0 <puts@plt>
 804885e:	83 c4 10             	add    $0x10,%esp
 8048861:	83 ec 0c             	sub    $0xc,%esp
 8048864:	68 fd 91 04 08       	push   $0x80491fd
 8048869:	e8 22 fd ff ff       	call   8048590 <printf@plt>
 804886e:	83 c4 10             	add    $0x10,%esp
 8048871:	83 ec 08             	sub    $0x8,%esp
 8048874:	8d 45 e0             	lea    -0x20(%ebp),%eax
 8048877:	83 c0 14             	add    $0x14,%eax
 804887a:	50                   	push   %eax
 804887b:	8d 45 e0             	lea    -0x20(%ebp),%eax
 804887e:	83 c0 10             	add    $0x10,%eax
 8048881:	50                   	push   %eax
 8048882:	8d 45 e0             	lea    -0x20(%ebp),%eax
 8048885:	83 c0 0c             	add    $0xc,%eax
 8048888:	50                   	push   %eax
 8048889:	8d 45 e0             	lea    -0x20(%ebp),%eax
 804888c:	83 c0 08             	add    $0x8,%eax
 804888f:	50                   	push   %eax
 8048890:	8d 45 e0             	lea    -0x20(%ebp),%eax
 8048893:	83 c0 04             	add    $0x4,%eax
 8048896:	50                   	push   %eax
 8048897:	68 51 92 04 08       	push   $0x8049251
 804889c:	e8 6f fd ff ff       	call   8048610 <__isoc99_scanf@plt>
 80488a1:	83 c4 20             	add    $0x20,%esp
 80488a4:	c7 45 e0 01 00 00 00 	movl   $0x1,-0x20(%ebp)
 80488ab:	c7 45 d4 07 00 00 00 	movl   $0x7,-0x2c(%ebp)
 80488b2:	c7 45 d8 0a 00 00 00 	movl   $0xa,-0x28(%ebp)
 80488b9:	c7 45 dc 01 00 00 00 	movl   $0x1,-0x24(%ebp)
 80488c0:	eb 37                	jmp    80488f9 <leveltwo+0xd9>
 80488c2:	8b 45 dc             	mov    -0x24(%ebp),%eax
 80488c5:	8b 54 85 e0          	mov    -0x20(%ebp,%eax,4),%edx
 80488c9:	8b 45 dc             	mov    -0x24(%ebp),%eax
 80488cc:	83 e8 01             	sub    $0x1,%eax
 80488cf:	8b 44 85 e0          	mov    -0x20(%ebp,%eax,4),%eax
 80488d3:	0f af 45 d4          	imul   -0x2c(%ebp),%eax
 80488d7:	89 c1                	mov    %eax,%ecx
 80488d9:	8b 45 d8             	mov    -0x28(%ebp),%eax
 80488dc:	01 c8                	add    %ecx,%eax
 80488de:	39 c2                	cmp    %eax,%edx
 80488e0:	74 07                	je     80488e9 <leveltwo+0xc9>
 80488e2:	b8 00 00 00 00       	mov    $0x0,%eax
 80488e7:	eb 1d                	jmp    8048906 <leveltwo+0xe6>
 80488e9:	83 45 dc 01          	addl   $0x1,-0x24(%ebp)
 80488ed:	8b 45 d4             	mov    -0x2c(%ebp),%eax
 80488f0:	31 45 d8             	xor    %eax,-0x28(%ebp)
 80488f3:	8b 45 d8             	mov    -0x28(%ebp),%eax
 80488f6:	31 45 d4             	xor    %eax,-0x2c(%ebp)
 80488f9:	8b 45 dc             	mov    -0x24(%ebp),%eax
 80488fc:	83 f8 04             	cmp    $0x4,%eax
 80488ff:	76 c1                	jbe    80488c2 <leveltwo+0xa2>
 8048901:	b8 01 00 00 00       	mov    $0x1,%eax
 8048906:	8b 55 f4             	mov    -0xc(%ebp),%edx
 8048909:	65 33 15 14 00 00 00 	xor    %gs:0x14,%edx
 8048910:	74 05                	je     8048917 <leveltwo+0xf7>
 8048912:	e8 a9 fc ff ff       	call   80485c0 <__stack_chk_fail@plt>
 8048917:	c9                   	leave  
 8048918:	c3                   	ret    

08048919 <magic>:
 8048919:	55                   	push   %ebp
 804891a:	89 e5                	mov    %esp,%ebp
 804891c:	83 ec 28             	sub    $0x28,%esp
 804891f:	8b 45 08             	mov    0x8(%ebp),%eax
 8048922:	88 45 e4             	mov    %al,-0x1c(%ebp)
 8048925:	65 a1 14 00 00 00    	mov    %gs:0x14,%eax
 804892b:	89 45 f4             	mov    %eax,-0xc(%ebp)
 804892e:	31 c0                	xor    %eax,%eax
 8048930:	c7 45 f0 00 00 00 00 	movl   $0x0,-0x10(%ebp)
 8048937:	c7 45 f0 00 00 00 00 	movl   $0x0,-0x10(%ebp)
 804893e:	eb 0d                	jmp    804894d <magic+0x34>
 8048940:	0f be 45 e4          	movsbl -0x1c(%ebp),%eax
 8048944:	83 e0 01             	and    $0x1,%eax
 8048947:	01 45 f0             	add    %eax,-0x10(%ebp)
 804894a:	d0 7d e4             	sarb   -0x1c(%ebp)
 804894d:	80 7d e4 00          	cmpb   $0x0,-0x1c(%ebp)
 8048951:	75 ed                	jne    8048940 <magic+0x27>
 8048953:	8b 45 f0             	mov    -0x10(%ebp),%eax
 8048956:	8b 55 f4             	mov    -0xc(%ebp),%edx
 8048959:	65 33 15 14 00 00 00 	xor    %gs:0x14,%edx
 8048960:	74 05                	je     8048967 <magic+0x4e>
 8048962:	e8 59 fc ff ff       	call   80485c0 <__stack_chk_fail@plt>
 8048967:	c9                   	leave  
 8048968:	c3                   	ret    

08048969 <levelthree>:
 8048969:	55                   	push   %ebp
 804896a:	89 e5                	mov    %esp,%ebp
 804896c:	83 ec 18             	sub    $0x18,%esp
 804896f:	65 a1 14 00 00 00    	mov    %gs:0x14,%eax
 8048975:	89 45 f4             	mov    %eax,-0xc(%ebp)
 8048978:	31 c0                	xor    %eax,%eax
 804897a:	83 ec 0c             	sub    $0xc,%esp
 804897d:	68 70 91 04 08       	push   $0x8049170
 8048982:	e8 49 fc ff ff       	call   80485d0 <puts@plt>
 8048987:	83 c4 10             	add    $0x10,%esp
 804898a:	83 ec 0c             	sub    $0xc,%esp
 804898d:	68 60 92 04 08       	push   $0x8049260
 8048992:	e8 39 fc ff ff       	call   80485d0 <puts@plt>
 8048997:	83 c4 10             	add    $0x10,%esp
 804899a:	83 ec 0c             	sub    $0xc,%esp
 804899d:	68 70 91 04 08       	push   $0x8049170
 80489a2:	e8 29 fc ff ff       	call   80485d0 <puts@plt>
 80489a7:	83 c4 10             	add    $0x10,%esp
 80489aa:	83 ec 0c             	sub    $0xc,%esp
 80489ad:	68 a5 92 04 08       	push   $0x80492a5
 80489b2:	e8 d9 fb ff ff       	call   8048590 <printf@plt>
 80489b7:	83 c4 10             	add    $0x10,%esp
 80489ba:	83 ec 08             	sub    $0x8,%esp
 80489bd:	8d 45 f3             	lea    -0xd(%ebp),%eax
 80489c0:	50                   	push   %eax
 80489c1:	8d 45 f2             	lea    -0xe(%ebp),%eax
 80489c4:	50                   	push   %eax
 80489c5:	8d 45 f1             	lea    -0xf(%ebp),%eax
 80489c8:	50                   	push   %eax
 80489c9:	8d 45 f0             	lea    -0x10(%ebp),%eax
 80489cc:	50                   	push   %eax
 80489cd:	8d 45 ef             	lea    -0x11(%ebp),%eax
 80489d0:	50                   	push   %eax
 80489d1:	68 b2 92 04 08       	push   $0x80492b2
 80489d6:	e8 35 fc ff ff       	call   8048610 <__isoc99_scanf@plt>
 80489db:	83 c4 20             	add    $0x20,%esp
 80489de:	0f b6 45 ef          	movzbl -0x11(%ebp),%eax
 80489e2:	0f be c0             	movsbl %al,%eax
 80489e5:	83 ec 0c             	sub    $0xc,%esp
 80489e8:	50                   	push   %eax
 80489e9:	e8 2b ff ff ff       	call   8048919 <magic>
 80489ee:	83 c4 10             	add    $0x10,%esp
 80489f1:	83 f8 03             	cmp    $0x3,%eax
 80489f4:	0f 84 b5 00 00 00    	je     8048aaf <levelthree+0x146>
 80489fa:	83 f8 03             	cmp    $0x3,%eax
 80489fd:	7f 07                	jg     8048a06 <levelthree+0x9d>
 80489ff:	83 f8 02             	cmp    $0x2,%eax
 8048a02:	74 1e                	je     8048a22 <levelthree+0xb9>
 8048a04:	eb 12                	jmp    8048a18 <levelthree+0xaf>
 8048a06:	83 f8 04             	cmp    $0x4,%eax
 8048a09:	0f 84 29 01 00 00    	je     8048b38 <levelthree+0x1cf>
 8048a0f:	83 f8 05             	cmp    $0x5,%eax
 8048a12:	0f 84 a9 01 00 00    	je     8048bc1 <levelthree+0x258>
 8048a18:	b8 00 00 00 00       	mov    $0x0,%eax
 8048a1d:	e9 21 02 00 00       	jmp    8048c43 <levelthree+0x2da>
 8048a22:	90                   	nop
 8048a23:	eb 04                	jmp    8048a29 <levelthree+0xc0>
 8048a25:	90                   	nop
 8048a26:	eb 01                	jmp    8048a29 <levelthree+0xc0>
 8048a28:	90                   	nop
 8048a29:	0f b6 45 f0          	movzbl -0x10(%ebp),%eax
 8048a2d:	0f be c0             	movsbl %al,%eax
 8048a30:	83 ec 0c             	sub    $0xc,%esp
 8048a33:	50                   	push   %eax
 8048a34:	e8 e0 fe ff ff       	call   8048919 <magic>
 8048a39:	83 c4 10             	add    $0x10,%esp
 8048a3c:	83 f8 01             	cmp    $0x1,%eax
 8048a3f:	75 64                	jne    8048aa5 <levelthree+0x13c>
 8048a41:	0f b6 45 f1          	movzbl -0xf(%ebp),%eax
 8048a45:	0f be c0             	movsbl %al,%eax
 8048a48:	83 ec 0c             	sub    $0xc,%esp
 8048a4b:	50                   	push   %eax
 8048a4c:	e8 c8 fe ff ff       	call   8048919 <magic>
 8048a51:	83 c4 10             	add    $0x10,%esp
 8048a54:	83 f8 03             	cmp    $0x3,%eax
 8048a57:	0f 85 67 01 00 00    	jne    8048bc4 <levelthree+0x25b>
 8048a5d:	0f b6 45 f2          	movzbl -0xe(%ebp),%eax
 8048a61:	0f be c0             	movsbl %al,%eax
 8048a64:	83 ec 0c             	sub    $0xc,%esp
 8048a67:	50                   	push   %eax
 8048a68:	e8 ac fe ff ff       	call   8048919 <magic>
 8048a6d:	83 c4 10             	add    $0x10,%esp
 8048a70:	83 f8 02             	cmp    $0x2,%eax
 8048a73:	75 26                	jne    8048a9b <levelthree+0x132>
 8048a75:	0f b6 45 f3          	movzbl -0xd(%ebp),%eax
 8048a79:	0f be c0             	movsbl %al,%eax
 8048a7c:	83 ec 0c             	sub    $0xc,%esp
 8048a7f:	50                   	push   %eax
 8048a80:	e8 94 fe ff ff       	call   8048919 <magic>
 8048a85:	83 c4 10             	add    $0x10,%esp
 8048a88:	83 f8 04             	cmp    $0x4,%eax
 8048a8b:	0f 85 aa 00 00 00    	jne    8048b3b <levelthree+0x1d2>
 8048a91:	b8 01 00 00 00       	mov    $0x1,%eax
 8048a96:	e9 a8 01 00 00       	jmp    8048c43 <levelthree+0x2da>
 8048a9b:	b8 00 00 00 00       	mov    $0x0,%eax
 8048aa0:	e9 9e 01 00 00       	jmp    8048c43 <levelthree+0x2da>
 8048aa5:	b8 00 00 00 00       	mov    $0x0,%eax
 8048aaa:	e9 94 01 00 00       	jmp    8048c43 <levelthree+0x2da>
 8048aaf:	90                   	nop
 8048ab0:	eb 04                	jmp    8048ab6 <levelthree+0x14d>
 8048ab2:	90                   	nop
 8048ab3:	eb 01                	jmp    8048ab6 <levelthree+0x14d>
 8048ab5:	90                   	nop
 8048ab6:	0f b6 45 f0          	movzbl -0x10(%ebp),%eax
 8048aba:	0f be c0             	movsbl %al,%eax
 8048abd:	83 ec 0c             	sub    $0xc,%esp
 8048ac0:	50                   	push   %eax
 8048ac1:	e8 53 fe ff ff       	call   8048919 <magic>
 8048ac6:	83 c4 10             	add    $0x10,%esp
 8048ac9:	83 f8 03             	cmp    $0x3,%eax
 8048acc:	75 60                	jne    8048b2e <levelthree+0x1c5>
 8048ace:	0f b6 45 f1          	movzbl -0xf(%ebp),%eax
 8048ad2:	0f be c0             	movsbl %al,%eax
 8048ad5:	83 ec 0c             	sub    $0xc,%esp
 8048ad8:	50                   	push   %eax
 8048ad9:	e8 3b fe ff ff       	call   8048919 <magic>
 8048ade:	83 c4 10             	add    $0x10,%esp
 8048ae1:	83 f8 05             	cmp    $0x5,%eax
 8048ae4:	75 3e                	jne    8048b24 <levelthree+0x1bb>
 8048ae6:	0f b6 45 f2          	movzbl -0xe(%ebp),%eax
 8048aea:	0f be c0             	movsbl %al,%eax
 8048aed:	83 ec 0c             	sub    $0xc,%esp
 8048af0:	50                   	push   %eax
 8048af1:	e8 23 fe ff ff       	call   8048919 <magic>
 8048af6:	83 c4 10             	add    $0x10,%esp
 8048af9:	83 f8 02             	cmp    $0x2,%eax
 8048afc:	75 40                	jne    8048b3e <levelthree+0x1d5>
 8048afe:	0f b6 45 f3          	movzbl -0xd(%ebp),%eax
 8048b02:	0f be c0             	movsbl %al,%eax
 8048b05:	83 ec 0c             	sub    $0xc,%esp
 8048b08:	50                   	push   %eax
 8048b09:	e8 0b fe ff ff       	call   8048919 <magic>
 8048b0e:	83 c4 10             	add    $0x10,%esp
 8048b11:	83 f8 02             	cmp    $0x2,%eax
 8048b14:	0f 84 0b ff ff ff    	je     8048a25 <levelthree+0xbc>
 8048b1a:	b8 00 00 00 00       	mov    $0x0,%eax
 8048b1f:	e9 1f 01 00 00       	jmp    8048c43 <levelthree+0x2da>
 8048b24:	b8 00 00 00 00       	mov    $0x0,%eax
 8048b29:	e9 15 01 00 00       	jmp    8048c43 <levelthree+0x2da>
 8048b2e:	b8 00 00 00 00       	mov    $0x0,%eax
 8048b33:	e9 0b 01 00 00       	jmp    8048c43 <levelthree+0x2da>
 8048b38:	90                   	nop
 8048b39:	eb 04                	jmp    8048b3f <levelthree+0x1d6>
 8048b3b:	90                   	nop
 8048b3c:	eb 01                	jmp    8048b3f <levelthree+0x1d6>
 8048b3e:	90                   	nop
 8048b3f:	0f b6 45 f0          	movzbl -0x10(%ebp),%eax
 8048b43:	0f be c0             	movsbl %al,%eax
 8048b46:	83 ec 0c             	sub    $0xc,%esp
 8048b49:	50                   	push   %eax
 8048b4a:	e8 ca fd ff ff       	call   8048919 <magic>
 8048b4f:	83 c4 10             	add    $0x10,%esp
 8048b52:	83 f8 02             	cmp    $0x2,%eax
 8048b55:	75 60                	jne    8048bb7 <levelthree+0x24e>
 8048b57:	0f b6 45 f1          	movzbl -0xf(%ebp),%eax
 8048b5b:	0f be c0             	movsbl %al,%eax
 8048b5e:	83 ec 0c             	sub    $0xc,%esp
 8048b61:	50                   	push   %eax
 8048b62:	e8 b2 fd ff ff       	call   8048919 <magic>
 8048b67:	83 c4 10             	add    $0x10,%esp
 8048b6a:	83 f8 01             	cmp    $0x1,%eax
 8048b6d:	0f 85 3f ff ff ff    	jne    8048ab2 <levelthree+0x149>
 8048b73:	0f b6 45 f2          	movzbl -0xe(%ebp),%eax
 8048b77:	0f be c0             	movsbl %al,%eax
 8048b7a:	83 ec 0c             	sub    $0xc,%esp
 8048b7d:	50                   	push   %eax
 8048b7e:	e8 96 fd ff ff       	call   8048919 <magic>
 8048b83:	83 c4 10             	add    $0x10,%esp
 8048b86:	83 f8 05             	cmp    $0x5,%eax
 8048b89:	75 22                	jne    8048bad <levelthree+0x244>
 8048b8b:	0f b6 45 f3          	movzbl -0xd(%ebp),%eax
 8048b8f:	0f be c0             	movsbl %al,%eax
 8048b92:	83 ec 0c             	sub    $0xc,%esp
 8048b95:	50                   	push   %eax
 8048b96:	e8 7e fd ff ff       	call   8048919 <magic>
 8048b9b:	83 c4 10             	add    $0x10,%esp
 8048b9e:	83 f8 01             	cmp    $0x1,%eax
 8048ba1:	75 24                	jne    8048bc7 <levelthree+0x25e>
 8048ba3:	b8 00 00 00 00       	mov    $0x0,%eax
 8048ba8:	e9 96 00 00 00       	jmp    8048c43 <levelthree+0x2da>
 8048bad:	b8 00 00 00 00       	mov    $0x0,%eax
 8048bb2:	e9 8c 00 00 00       	jmp    8048c43 <levelthree+0x2da>
 8048bb7:	b8 00 00 00 00       	mov    $0x0,%eax
 8048bbc:	e9 82 00 00 00       	jmp    8048c43 <levelthree+0x2da>
 8048bc1:	90                   	nop
 8048bc2:	eb 04                	jmp    8048bc8 <levelthree+0x25f>
 8048bc4:	90                   	nop
 8048bc5:	eb 01                	jmp    8048bc8 <levelthree+0x25f>
 8048bc7:	90                   	nop
 8048bc8:	0f b6 45 f0          	movzbl -0x10(%ebp),%eax
 8048bcc:	0f be c0             	movsbl %al,%eax
 8048bcf:	83 ec 0c             	sub    $0xc,%esp
 8048bd2:	50                   	push   %eax
 8048bd3:	e8 41 fd ff ff       	call   8048919 <magic>
 8048bd8:	83 c4 10             	add    $0x10,%esp
 8048bdb:	83 f8 05             	cmp    $0x5,%eax
 8048bde:	75 5e                	jne    8048c3e <levelthree+0x2d5>
 8048be0:	0f b6 45 f1          	movzbl -0xf(%ebp),%eax
 8048be4:	0f be c0             	movsbl %al,%eax
 8048be7:	83 ec 0c             	sub    $0xc,%esp
 8048bea:	50                   	push   %eax
 8048beb:	e8 29 fd ff ff       	call   8048919 <magic>
 8048bf0:	83 c4 10             	add    $0x10,%esp
 8048bf3:	83 f8 03             	cmp    $0x3,%eax
 8048bf6:	0f 85 2c fe ff ff    	jne    8048a28 <levelthree+0xbf>
 8048bfc:	0f b6 45 f2          	movzbl -0xe(%ebp),%eax
 8048c00:	0f be c0             	movsbl %al,%eax
 8048c03:	83 ec 0c             	sub    $0xc,%esp
 8048c06:	50                   	push   %eax
 8048c07:	e8 0d fd ff ff       	call   8048919 <magic>
 8048c0c:	83 c4 10             	add    $0x10,%esp
 8048c0f:	83 f8 05             	cmp    $0x5,%eax
 8048c12:	75 23                	jne    8048c37 <levelthree+0x2ce>
 8048c14:	0f b6 45 f3          	movzbl -0xd(%ebp),%eax
 8048c18:	0f be c0             	movsbl %al,%eax
 8048c1b:	83 ec 0c             	sub    $0xc,%esp
 8048c1e:	50                   	push   %eax
 8048c1f:	e8 f5 fc ff ff       	call   8048919 <magic>
 8048c24:	83 c4 10             	add    $0x10,%esp
 8048c27:	83 f8 04             	cmp    $0x4,%eax
 8048c2a:	0f 84 85 fe ff ff    	je     8048ab5 <levelthree+0x14c>
 8048c30:	b8 00 00 00 00       	mov    $0x0,%eax
 8048c35:	eb 0c                	jmp    8048c43 <levelthree+0x2da>
 8048c37:	b8 00 00 00 00       	mov    $0x0,%eax
 8048c3c:	eb 05                	jmp    8048c43 <levelthree+0x2da>
 8048c3e:	b8 00 00 00 00       	mov    $0x0,%eax
 8048c43:	8b 55 f4             	mov    -0xc(%ebp),%edx
 8048c46:	65 33 15 14 00 00 00 	xor    %gs:0x14,%edx
 8048c4d:	74 05                	je     8048c54 <levelthree+0x2eb>
 8048c4f:	e8 6c f9 ff ff       	call   80485c0 <__stack_chk_fail@plt>
 8048c54:	c9                   	leave  
 8048c55:	c3                   	ret    

08048c56 <rabbit_hole>:
 8048c56:	55                   	push   %ebp
 8048c57:	89 e5                	mov    %esp,%ebp
 8048c59:	53                   	push   %ebx
 8048c5a:	83 ec 24             	sub    $0x24,%esp
 8048c5d:	8b 45 08             	mov    0x8(%ebp),%eax
 8048c60:	89 45 e4             	mov    %eax,-0x1c(%ebp)
 8048c63:	65 a1 14 00 00 00    	mov    %gs:0x14,%eax
 8048c69:	89 45 f4             	mov    %eax,-0xc(%ebp)
 8048c6c:	31 c0                	xor    %eax,%eax
 8048c6e:	83 7d e4 00          	cmpl   $0x0,-0x1c(%ebp)
 8048c72:	7f 07                	jg     8048c7b <rabbit_hole+0x25>
 8048c74:	b8 01 00 00 00       	mov    $0x1,%eax
 8048c79:	eb 28                	jmp    8048ca3 <rabbit_hole+0x4d>
 8048c7b:	8b 45 e4             	mov    -0x1c(%ebp),%eax
 8048c7e:	83 e8 02             	sub    $0x2,%eax
 8048c81:	83 ec 0c             	sub    $0xc,%esp
 8048c84:	50                   	push   %eax
 8048c85:	e8 cc ff ff ff       	call   8048c56 <rabbit_hole>
 8048c8a:	83 c4 10             	add    $0x10,%esp
 8048c8d:	89 c3                	mov    %eax,%ebx
 8048c8f:	8b 45 e4             	mov    -0x1c(%ebp),%eax
 8048c92:	83 e8 04             	sub    $0x4,%eax
 8048c95:	83 ec 0c             	sub    $0xc,%esp
 8048c98:	50                   	push   %eax
 8048c99:	e8 b8 ff ff ff       	call   8048c56 <rabbit_hole>
 8048c9e:	83 c4 10             	add    $0x10,%esp
 8048ca1:	01 d8                	add    %ebx,%eax
 8048ca3:	8b 55 f4             	mov    -0xc(%ebp),%edx
 8048ca6:	65 33 15 14 00 00 00 	xor    %gs:0x14,%edx
 8048cad:	74 05                	je     8048cb4 <rabbit_hole+0x5e>
 8048caf:	e8 0c f9 ff ff       	call   80485c0 <__stack_chk_fail@plt>
 8048cb4:	8b 5d fc             	mov    -0x4(%ebp),%ebx
 8048cb7:	c9                   	leave  
 8048cb8:	c3                   	ret    

08048cb9 <levelfour>:
 8048cb9:	55                   	push   %ebp
 8048cba:	89 e5                	mov    %esp,%ebp
 8048cbc:	83 ec 18             	sub    $0x18,%esp
 8048cbf:	65 a1 14 00 00 00    	mov    %gs:0x14,%eax
 8048cc5:	89 45 f4             	mov    %eax,-0xc(%ebp)
 8048cc8:	31 c0                	xor    %eax,%eax
 8048cca:	83 ec 0c             	sub    $0xc,%esp
 8048ccd:	68 70 91 04 08       	push   $0x8049170
 8048cd2:	e8 f9 f8 ff ff       	call   80485d0 <puts@plt>
 8048cd7:	83 c4 10             	add    $0x10,%esp
 8048cda:	83 ec 0c             	sub    $0xc,%esp
 8048cdd:	68 c4 92 04 08       	push   $0x80492c4
 8048ce2:	e8 e9 f8 ff ff       	call   80485d0 <puts@plt>
 8048ce7:	83 c4 10             	add    $0x10,%esp
 8048cea:	83 ec 0c             	sub    $0xc,%esp
 8048ced:	68 70 91 04 08       	push   $0x8049170
 8048cf2:	e8 d9 f8 ff ff       	call   80485d0 <puts@plt>
 8048cf7:	83 c4 10             	add    $0x10,%esp
 8048cfa:	83 ec 0c             	sub    $0xc,%esp
 8048cfd:	68 a5 92 04 08       	push   $0x80492a5
 8048d02:	e8 89 f8 ff ff       	call   8048590 <printf@plt>
 8048d07:	83 c4 10             	add    $0x10,%esp
 8048d0a:	83 ec 08             	sub    $0x8,%esp
 8048d0d:	8d 45 f0             	lea    -0x10(%ebp),%eax
 8048d10:	50                   	push   %eax
 8048d11:	68 09 93 04 08       	push   $0x8049309
 8048d16:	e8 f5 f8 ff ff       	call   8048610 <__isoc99_scanf@plt>
 8048d1b:	83 c4 10             	add    $0x10,%esp
 8048d1e:	8b 45 f0             	mov    -0x10(%ebp),%eax
 8048d21:	c1 f8 03             	sar    $0x3,%eax
 8048d24:	83 ec 0c             	sub    $0xc,%esp
 8048d27:	50                   	push   %eax
 8048d28:	e8 29 ff ff ff       	call   8048c56 <rabbit_hole>
 8048d2d:	83 c4 10             	add    $0x10,%esp
 8048d30:	3d a2 0e c5 03       	cmp    $0x3c50ea2,%eax
 8048d35:	74 07                	je     8048d3e <levelfour+0x85>
 8048d37:	b8 00 00 00 00       	mov    $0x0,%eax
 8048d3c:	eb 05                	jmp    8048d43 <levelfour+0x8a>
 8048d3e:	b8 01 00 00 00       	mov    $0x1,%eax
 8048d43:	8b 55 f4             	mov    -0xc(%ebp),%edx
 8048d46:	65 33 15 14 00 00 00 	xor    %gs:0x14,%edx
 8048d4d:	74 05                	je     8048d54 <levelfour+0x9b>
 8048d4f:	e8 6c f8 ff ff       	call   80485c0 <__stack_chk_fail@plt>
 8048d54:	c9                   	leave  
 8048d55:	c3                   	ret    

08048d56 <ayylmao>:
 8048d56:	55                   	push   %ebp
 8048d57:	89 e5                	mov    %esp,%ebp
 8048d59:	83 ec 38             	sub    $0x38,%esp
 8048d5c:	8b 45 08             	mov    0x8(%ebp),%eax
 8048d5f:	89 45 d4             	mov    %eax,-0x2c(%ebp)
 8048d62:	65 a1 14 00 00 00    	mov    %gs:0x14,%eax
 8048d68:	89 45 f4             	mov    %eax,-0xc(%ebp)
 8048d6b:	31 c0                	xor    %eax,%eax
 8048d6d:	d9 05 f8 96 04 08    	flds   0x80496f8
 8048d73:	d9 5d ec             	fstps  -0x14(%ebp)
 8048d76:	d9 45 d4             	flds   -0x2c(%ebp)
 8048d79:	d9 05 fc 96 04 08    	flds   0x80496fc
 8048d7f:	de c9                	fmulp  %st,%st(1)
 8048d81:	d9 5d f0             	fstps  -0x10(%ebp)
 8048d84:	d9 45 d4             	flds   -0x2c(%ebp)
 8048d87:	d9 5d e8             	fstps  -0x18(%ebp)
 8048d8a:	8d 45 e8             	lea    -0x18(%ebp),%eax
 8048d8d:	8b 00                	mov    (%eax),%eax
 8048d8f:	89 45 e4             	mov    %eax,-0x1c(%ebp)
 8048d92:	8b 45 e4             	mov    -0x1c(%ebp),%eax
 8048d95:	d1 f8                	sar    %eax
 8048d97:	ba df 59 37 5f       	mov    $0x5f3759df,%edx
 8048d9c:	29 c2                	sub    %eax,%edx
 8048d9e:	89 d0                	mov    %edx,%eax
 8048da0:	89 45 e4             	mov    %eax,-0x1c(%ebp)
 8048da3:	8d 45 e4             	lea    -0x1c(%ebp),%eax
 8048da6:	d9 00                	flds   (%eax)
 8048da8:	d9 5d e8             	fstps  -0x18(%ebp)
 8048dab:	d9 45 e8             	flds   -0x18(%ebp)
 8048dae:	d8 4d f0             	fmuls  -0x10(%ebp)
 8048db1:	d9 45 e8             	flds   -0x18(%ebp)
 8048db4:	de c9                	fmulp  %st,%st(1)
 8048db6:	d9 45 ec             	flds   -0x14(%ebp)
 8048db9:	de e1                	fsubp  %st,%st(1)
 8048dbb:	d9 45 e8             	flds   -0x18(%ebp)
 8048dbe:	de c9                	fmulp  %st,%st(1)
 8048dc0:	d9 5d e8             	fstps  -0x18(%ebp)
 8048dc3:	d9 45 e8             	flds   -0x18(%ebp)
 8048dc6:	8b 45 f4             	mov    -0xc(%ebp),%eax
 8048dc9:	65 33 05 14 00 00 00 	xor    %gs:0x14,%eax
 8048dd0:	74 07                	je     8048dd9 <ayylmao+0x83>
 8048dd2:	dd d8                	fstp   %st(0)
 8048dd4:	e8 e7 f7 ff ff       	call   80485c0 <__stack_chk_fail@plt>
 8048dd9:	c9                   	leave  
 8048dda:	c3                   	ret    

08048ddb <levelfive>:
 8048ddb:	55                   	push   %ebp
 8048ddc:	89 e5                	mov    %esp,%ebp
 8048dde:	83 ec 58             	sub    $0x58,%esp
 8048de1:	65 a1 14 00 00 00    	mov    %gs:0x14,%eax
 8048de7:	89 45 f4             	mov    %eax,-0xc(%ebp)
 8048dea:	31 c0                	xor    %eax,%eax
 8048dec:	c7 45 cc 03 00 00 00 	movl   $0x3,-0x34(%ebp)
 8048df3:	c7 45 d4 01 00 00 00 	movl   $0x1,-0x2c(%ebp)
 8048dfa:	c7 45 dc 03 00 00 00 	movl   $0x3,-0x24(%ebp)
 8048e01:	c7 45 e4 03 00 00 00 	movl   $0x3,-0x1c(%ebp)
 8048e08:	c7 45 ec 07 00 00 00 	movl   $0x7,-0x14(%ebp)
 8048e0f:	83 ec 0c             	sub    $0xc,%esp
 8048e12:	68 70 91 04 08       	push   $0x8049170
 8048e17:	e8 b4 f7 ff ff       	call   80485d0 <puts@plt>
 8048e1c:	83 c4 10             	add    $0x10,%esp
 8048e1f:	83 ec 0c             	sub    $0xc,%esp
 8048e22:	68 0c 93 04 08       	push   $0x804930c
 8048e27:	e8 a4 f7 ff ff       	call   80485d0 <puts@plt>
 8048e2c:	83 c4 10             	add    $0x10,%esp
 8048e2f:	83 ec 0c             	sub    $0xc,%esp
 8048e32:	68 70 91 04 08       	push   $0x8049170
 8048e37:	e8 94 f7 ff ff       	call   80485d0 <puts@plt>
 8048e3c:	83 c4 10             	add    $0x10,%esp
 8048e3f:	83 ec 0c             	sub    $0xc,%esp
 8048e42:	68 a5 92 04 08       	push   $0x80492a5
 8048e47:	e8 44 f7 ff ff       	call   8048590 <printf@plt>
 8048e4c:	83 c4 10             	add    $0x10,%esp
 8048e4f:	c7 45 c4 00 00 00 00 	movl   $0x0,-0x3c(%ebp)
 8048e56:	eb 23                	jmp    8048e7b <levelfive+0xa0>
 8048e58:	8d 45 cc             	lea    -0x34(%ebp),%eax
 8048e5b:	8b 55 c4             	mov    -0x3c(%ebp),%edx
 8048e5e:	c1 e2 03             	shl    $0x3,%edx
 8048e61:	01 d0                	add    %edx,%eax
 8048e63:	83 c0 04             	add    $0x4,%eax
 8048e66:	83 ec 08             	sub    $0x8,%esp
 8048e69:	50                   	push   %eax
 8048e6a:	68 51 93 04 08       	push   $0x8049351
 8048e6f:	e8 9c f7 ff ff       	call   8048610 <__isoc99_scanf@plt>
 8048e74:	83 c4 10             	add    $0x10,%esp
 8048e77:	83 45 c4 01          	addl   $0x1,-0x3c(%ebp)
 8048e7b:	83 7d c4 04          	cmpl   $0x4,-0x3c(%ebp)
 8048e7f:	7e d7                	jle    8048e58 <levelfive+0x7d>
 8048e81:	c7 45 c8 00 00 00 00 	movl   $0x0,-0x38(%ebp)
 8048e88:	eb 5a                	jmp    8048ee4 <levelfive+0x109>
 8048e8a:	8b 45 c8             	mov    -0x38(%ebp),%eax
 8048e8d:	d9 44 c5 d0          	flds   -0x30(%ebp,%eax,8)
 8048e91:	83 ec 0c             	sub    $0xc,%esp
 8048e94:	8d 64 24 fc          	lea    -0x4(%esp),%esp
 8048e98:	d9 1c 24             	fstps  (%esp)
 8048e9b:	e8 b6 fe ff ff       	call   8048d56 <ayylmao>
 8048ea0:	83 c4 10             	add    $0x10,%esp
 8048ea3:	83 ec 08             	sub    $0x8,%esp
 8048ea6:	8d 64 24 f8          	lea    -0x8(%esp),%esp
 8048eaa:	dd 1c 24             	fstpl  (%esp)
 8048ead:	e8 be f6 ff ff       	call   8048570 <round@plt>
 8048eb2:	83 c4 10             	add    $0x10,%esp
 8048eb5:	d9 7d b6             	fnstcw -0x4a(%ebp)
 8048eb8:	0f b7 45 b6          	movzwl -0x4a(%ebp),%eax
 8048ebc:	b4 0c                	mov    $0xc,%ah
 8048ebe:	66 89 45 b4          	mov    %ax,-0x4c(%ebp)
 8048ec2:	d9 6d b4             	fldcw  -0x4c(%ebp)
 8048ec5:	db 5d b0             	fistpl -0x50(%ebp)
 8048ec8:	d9 6d b6             	fldcw  -0x4a(%ebp)
 8048ecb:	8b 55 b0             	mov    -0x50(%ebp),%edx
 8048ece:	8b 45 c8             	mov    -0x38(%ebp),%eax
 8048ed1:	8b 44 c5 cc          	mov    -0x34(%ebp,%eax,8),%eax
 8048ed5:	39 c2                	cmp    %eax,%edx
 8048ed7:	74 07                	je     8048ee0 <levelfive+0x105>
 8048ed9:	b8 00 00 00 00       	mov    $0x0,%eax
 8048ede:	eb 0f                	jmp    8048eef <levelfive+0x114>
 8048ee0:	83 45 c8 01          	addl   $0x1,-0x38(%ebp)
 8048ee4:	83 7d c8 04          	cmpl   $0x4,-0x38(%ebp)
 8048ee8:	7e a0                	jle    8048e8a <levelfive+0xaf>
 8048eea:	b8 01 00 00 00       	mov    $0x1,%eax
 8048eef:	8b 4d f4             	mov    -0xc(%ebp),%ecx
 8048ef2:	65 33 0d 14 00 00 00 	xor    %gs:0x14,%ecx
 8048ef9:	74 05                	je     8048f00 <levelfive+0x125>
 8048efb:	e8 c0 f6 ff ff       	call   80485c0 <__stack_chk_fail@plt>
 8048f00:	c9                   	leave  
 8048f01:	c3                   	ret    

08048f02 <main>:
 8048f02:	8d 4c 24 04          	lea    0x4(%esp),%ecx
 8048f06:	83 e4 f0             	and    $0xfffffff0,%esp
 8048f09:	ff 71 fc             	pushl  -0x4(%ecx)
 8048f0c:	55                   	push   %ebp
 8048f0d:	89 e5                	mov    %esp,%ebp
 8048f0f:	51                   	push   %ecx
 8048f10:	83 ec 14             	sub    $0x14,%esp
 8048f13:	65 a1 14 00 00 00    	mov    %gs:0x14,%eax
 8048f19:	89 45 f4             	mov    %eax,-0xc(%ebp)
 8048f1c:	31 c0                	xor    %eax,%eax
 8048f1e:	6a 00                	push   $0x0
 8048f20:	6a 00                	push   $0x0
 8048f22:	6a 00                	push   $0x0
 8048f24:	6a 00                	push   $0x0
 8048f26:	e8 f5 f6 ff ff       	call   8048620 <ptrace@plt>
 8048f2b:	83 c4 10             	add    $0x10,%esp
 8048f2e:	83 f8 ff             	cmp    $0xffffffff,%eax
 8048f31:	75 0a                	jne    8048f3d <main+0x3b>
 8048f33:	83 ec 0c             	sub    $0xc,%esp
 8048f36:	6a 00                	push   $0x0
 8048f38:	e8 a3 f6 ff ff       	call   80485e0 <exit@plt>
 8048f3d:	a1 60 b0 04 08       	mov    0x804b060,%eax
 8048f42:	6a 00                	push   $0x0
 8048f44:	6a 02                	push   $0x2
 8048f46:	6a 00                	push   $0x0
 8048f48:	50                   	push   %eax
 8048f49:	e8 b2 f6 ff ff       	call   8048600 <setvbuf@plt>
 8048f4e:	83 c4 10             	add    $0x10,%esp
 8048f51:	a1 64 b0 04 08       	mov    0x804b064,%eax
 8048f56:	6a 00                	push   $0x0
 8048f58:	6a 02                	push   $0x2
 8048f5a:	6a 00                	push   $0x0
 8048f5c:	50                   	push   %eax
 8048f5d:	e8 9e f6 ff ff       	call   8048600 <setvbuf@plt>
 8048f62:	83 c4 10             	add    $0x10,%esp
 8048f65:	83 ec 0c             	sub    $0xc,%esp
 8048f68:	68 54 93 04 08       	push   $0x8049354
 8048f6d:	e8 5e f6 ff ff       	call   80485d0 <puts@plt>
 8048f72:	83 c4 10             	add    $0x10,%esp
 8048f75:	83 ec 0c             	sub    $0xc,%esp
 8048f78:	68 a4 93 04 08       	push   $0x80493a4
 8048f7d:	e8 4e f6 ff ff       	call   80485d0 <puts@plt>
 8048f82:	83 c4 10             	add    $0x10,%esp
 8048f85:	83 ec 0c             	sub    $0xc,%esp
 8048f88:	68 04 94 04 08       	push   $0x8049404
 8048f8d:	e8 3e f6 ff ff       	call   80485d0 <puts@plt>
 8048f92:	83 c4 10             	add    $0x10,%esp
 8048f95:	83 ec 0c             	sub    $0xc,%esp
 8048f98:	68 64 94 04 08       	push   $0x8049464
 8048f9d:	e8 2e f6 ff ff       	call   80485d0 <puts@plt>
 8048fa2:	83 c4 10             	add    $0x10,%esp
 8048fa5:	83 ec 0c             	sub    $0xc,%esp
 8048fa8:	68 c4 94 04 08       	push   $0x80494c4
 8048fad:	e8 1e f6 ff ff       	call   80485d0 <puts@plt>
 8048fb2:	83 c4 10             	add    $0x10,%esp
 8048fb5:	83 ec 0c             	sub    $0xc,%esp
 8048fb8:	68 24 95 04 08       	push   $0x8049524
 8048fbd:	e8 0e f6 ff ff       	call   80485d0 <puts@plt>
 8048fc2:	83 c4 10             	add    $0x10,%esp
 8048fc5:	83 ec 0c             	sub    $0xc,%esp
 8048fc8:	68 84 95 04 08       	push   $0x8049584
 8048fcd:	e8 fe f5 ff ff       	call   80485d0 <puts@plt>
 8048fd2:	83 c4 10             	add    $0x10,%esp
 8048fd5:	83 ec 0c             	sub    $0xc,%esp
 8048fd8:	68 d8 95 04 08       	push   $0x80495d8
 8048fdd:	e8 ee f5 ff ff       	call   80485d0 <puts@plt>
 8048fe2:	83 c4 10             	add    $0x10,%esp
 8048fe5:	83 ec 0c             	sub    $0xc,%esp
 8048fe8:	68 84 95 04 08       	push   $0x8049584
 8048fed:	e8 de f5 ff ff       	call   80485d0 <puts@plt>
 8048ff2:	83 c4 10             	add    $0x10,%esp
 8048ff5:	83 ec 0c             	sub    $0xc,%esp
 8048ff8:	68 30 96 04 08       	push   $0x8049630
 8048ffd:	e8 ce f5 ff ff       	call   80485d0 <puts@plt>
 8049002:	83 c4 10             	add    $0x10,%esp
 8049005:	83 ec 0c             	sub    $0xc,%esp
 8049008:	68 8c 96 04 08       	push   $0x804968c
 804900d:	e8 be f5 ff ff       	call   80485d0 <puts@plt>
 8049012:	83 c4 10             	add    $0x10,%esp
 8049015:	e8 21 f7 ff ff       	call   804873b <levelone>
 804901a:	84 c0                	test   %al,%al
 804901c:	74 1b                	je     8049039 <main+0x137>
 804901e:	83 ec 0c             	sub    $0xc,%esp
 8049021:	68 da 96 04 08       	push   $0x80496da
 8049026:	e8 a5 f5 ff ff       	call   80485d0 <puts@plt>
 804902b:	83 c4 10             	add    $0x10,%esp
 804902e:	e8 ed f7 ff ff       	call   8048820 <leveltwo>
 8049033:	84 c0                	test   %al,%al
 8049035:	74 27                	je     804905e <main+0x15c>
 8049037:	eb 0a                	jmp    8049043 <main+0x141>
 8049039:	83 ec 0c             	sub    $0xc,%esp
 804903c:	6a 00                	push   $0x0
 804903e:	e8 9d f5 ff ff       	call   80485e0 <exit@plt>
 8049043:	83 ec 0c             	sub    $0xc,%esp
 8049046:	68 da 96 04 08       	push   $0x80496da
 804904b:	e8 80 f5 ff ff       	call   80485d0 <puts@plt>
 8049050:	83 c4 10             	add    $0x10,%esp
 8049053:	e8 11 f9 ff ff       	call   8048969 <levelthree>
 8049058:	84 c0                	test   %al,%al
 804905a:	74 27                	je     8049083 <main+0x181>
 804905c:	eb 0a                	jmp    8049068 <main+0x166>
 804905e:	83 ec 0c             	sub    $0xc,%esp
 8049061:	6a 00                	push   $0x0
 8049063:	e8 78 f5 ff ff       	call   80485e0 <exit@plt>
 8049068:	83 ec 0c             	sub    $0xc,%esp
 804906b:	68 da 96 04 08       	push   $0x80496da
 8049070:	e8 5b f5 ff ff       	call   80485d0 <puts@plt>
 8049075:	83 c4 10             	add    $0x10,%esp
 8049078:	e8 3c fc ff ff       	call   8048cb9 <levelfour>
 804907d:	84 c0                	test   %al,%al
 804907f:	74 27                	je     80490a8 <main+0x1a6>
 8049081:	eb 0a                	jmp    804908d <main+0x18b>
 8049083:	83 ec 0c             	sub    $0xc,%esp
 8049086:	6a 00                	push   $0x0
 8049088:	e8 53 f5 ff ff       	call   80485e0 <exit@plt>
 804908d:	83 ec 0c             	sub    $0xc,%esp
 8049090:	68 da 96 04 08       	push   $0x80496da
 8049095:	e8 36 f5 ff ff       	call   80485d0 <puts@plt>
 804909a:	83 c4 10             	add    $0x10,%esp
 804909d:	e8 39 fd ff ff       	call   8048ddb <levelfive>
 80490a2:	84 c0                	test   %al,%al
 80490a4:	74 2f                	je     80490d5 <main+0x1d3>
 80490a6:	eb 0a                	jmp    80490b2 <main+0x1b0>
 80490a8:	83 ec 0c             	sub    $0xc,%esp
 80490ab:	6a 00                	push   $0x0
 80490ad:	e8 2e f5 ff ff       	call   80485e0 <exit@plt>
 80490b2:	83 ec 0c             	sub    $0xc,%esp
 80490b5:	68 da 96 04 08       	push   $0x80496da
 80490ba:	e8 11 f5 ff ff       	call   80485d0 <puts@plt>
 80490bf:	83 c4 10             	add    $0x10,%esp
 80490c2:	b8 00 00 00 00       	mov    $0x0,%eax
 80490c7:	8b 55 f4             	mov    -0xc(%ebp),%edx
 80490ca:	65 33 15 14 00 00 00 	xor    %gs:0x14,%edx
 80490d1:	74 11                	je     80490e4 <main+0x1e2>
 80490d3:	eb 0a                	jmp    80490df <main+0x1dd>
 80490d5:	83 ec 0c             	sub    $0xc,%esp
 80490d8:	6a 00                	push   $0x0
 80490da:	e8 01 f5 ff ff       	call   80485e0 <exit@plt>
 80490df:	e8 dc f4 ff ff       	call   80485c0 <__stack_chk_fail@plt>
 80490e4:	8b 4d fc             	mov    -0x4(%ebp),%ecx
 80490e7:	c9                   	leave  
 80490e8:	8d 61 fc             	lea    -0x4(%ecx),%esp
 80490eb:	c3                   	ret    
 80490ec:	66 90                	xchg   %ax,%ax
 80490ee:	66 90                	xchg   %ax,%ax

080490f0 <__libc_csu_init>:
 80490f0:	55                   	push   %ebp
 80490f1:	57                   	push   %edi
 80490f2:	56                   	push   %esi
 80490f3:	53                   	push   %ebx
 80490f4:	e8 77 f5 ff ff       	call   8048670 <__x86.get_pc_thunk.bx>
 80490f9:	81 c3 07 1f 00 00    	add    $0x1f07,%ebx
 80490ff:	83 ec 0c             	sub    $0xc,%esp
 8049102:	8b 6c 24 20          	mov    0x20(%esp),%ebp
 8049106:	8d b3 04 ff ff ff    	lea    -0xfc(%ebx),%esi
 804910c:	e8 27 f4 ff ff       	call   8048538 <_init>
 8049111:	8d 83 00 ff ff ff    	lea    -0x100(%ebx),%eax
 8049117:	29 c6                	sub    %eax,%esi
 8049119:	c1 fe 02             	sar    $0x2,%esi
 804911c:	85 f6                	test   %esi,%esi
 804911e:	74 25                	je     8049145 <__libc_csu_init+0x55>
 8049120:	31 ff                	xor    %edi,%edi
 8049122:	8d b6 00 00 00 00    	lea    0x0(%esi),%esi
 8049128:	83 ec 04             	sub    $0x4,%esp
 804912b:	ff 74 24 2c          	pushl  0x2c(%esp)
 804912f:	ff 74 24 2c          	pushl  0x2c(%esp)
 8049133:	55                   	push   %ebp
 8049134:	ff 94 bb 00 ff ff ff 	call   *-0x100(%ebx,%edi,4)
 804913b:	83 c7 01             	add    $0x1,%edi
 804913e:	83 c4 10             	add    $0x10,%esp
 8049141:	39 f7                	cmp    %esi,%edi
 8049143:	75 e3                	jne    8049128 <__libc_csu_init+0x38>
 8049145:	83 c4 0c             	add    $0xc,%esp
 8049148:	5b                   	pop    %ebx
 8049149:	5e                   	pop    %esi
 804914a:	5f                   	pop    %edi
 804914b:	5d                   	pop    %ebp
 804914c:	c3                   	ret    
 804914d:	8d 76 00             	lea    0x0(%esi),%esi

08049150 <__libc_csu_fini>:
 8049150:	f3 c3                	repz ret 

Disassembly of section .fini:

08049154 <_fini>:
 8049154:	53                   	push   %ebx
 8049155:	83 ec 08             	sub    $0x8,%esp
 8049158:	e8 13 f5 ff ff       	call   8048670 <__x86.get_pc_thunk.bx>
 804915d:	81 c3 a3 1e 00 00    	add    $0x1ea3,%ebx
 8049163:	83 c4 08             	add    $0x8,%esp
 8049166:	5b                   	pop    %ebx
 8049167:	c3                   	ret    
